ARM GAS  /cygdrive/c/DOCUME~1/mkwapisz/LOCALS~1/Temp/cc2WPCuc.s 			page 1


   1              		.code	16
   2              		.file	"main.c"
   3              		.section	.debug_abbrev,"",%progbits
   4              	.Ldebug_abbrev0:
   5              		.section	.debug_info,"",%progbits
   6              	.Ldebug_info0:
   7              		.section	.debug_line,"",%progbits
   8              	.Ldebug_line0:
   9 0000 D5000000 		.text
   9      02004400 
   9      00000201 
   9      FB0E0D00 
   9      01010101 
  10              	.Ltext0:
  11              		.align	2
  12              		.global	appTick
  13              		.code 16
  14              		.thumb_func
  15              		.type	appTick, %function
  16              	appTick:
  17              	.LFB9:
  18              		.file 1 "main.c"
   1:main.c        **** /******************************************************************************
   2:main.c        ****  *
   3:main.c        ****  * Copyright:
   4:main.c        ****  *    (C) 2000 - 2005 Embedded Artists AB
   5:main.c        ****  *
   6:main.c        ****  * Description:
   7:main.c        ****  *    Sample application that demonstrates how to create processes.
   8:main.c        ****  *
   9:main.c        ****  *****************************************************************************/
  10:main.c        **** 
  11:main.c        **** 
  12:main.c        **** #include "pre_emptive_os/api/osapi.h"
  13:main.c        **** #include "pre_emptive_os/api/general.h"
  14:main.c        **** #include <printf_P.h>
  15:main.c        **** #include <ea_init.h>
  16:main.c        **** #include <lpc2xxx.h>
  17:main.c        **** #include <consol.h>
  18:main.c        **** 
  19:main.c        **** #define PROC1_STACK_SIZE 2048
  20:main.c        **** #define PROC2_STACK_SIZE 2048
  21:main.c        **** #define PROC3_STACK_SIZE 2048
  22:main.c        **** #define PROC4_STACK_SIZE 2048
  23:main.c        **** #define PROC5_STACK_SIZE 2048
  24:main.c        **** #define INIT_STACK_SIZE  400
  25:main.c        **** 
  26:main.c        **** static tU8 proc1Stack[PROC1_STACK_SIZE];
  27:main.c        **** static tU8 proc2Stack[PROC2_STACK_SIZE];
  28:main.c        **** static tU8 proc3Stack[PROC3_STACK_SIZE];
  29:main.c        **** static tU8 proc4Stack[PROC4_STACK_SIZE];
  30:main.c        **** static tU8 proc5Stack[PROC5_STACK_SIZE];
  31:main.c        **** static tU8 initStack[INIT_STACK_SIZE];
  32:main.c        **** static tU8 pid1;
  33:main.c        **** static tU8 pid2;
  34:main.c        **** static tU8 pid3;
  35:main.c        **** static tU8 pid4;
ARM GAS  /cygdrive/c/DOCUME~1/mkwapisz/LOCALS~1/Temp/cc2WPCuc.s 			page 2


  36:main.c        **** static tU8 pid5;
  37:main.c        **** 
  38:main.c        **** int timerCnt = 0;
  39:main.c        **** 
  40:main.c        **** static void proc1(void* arg);
  41:main.c        **** static void proc2(void* arg);
  42:main.c        **** static void proc3(void* arg);
  43:main.c        **** static void proc4(void* arg);
  44:main.c        **** static void proc5(void* arg);
  45:main.c        **** static void initProc(void* arg);
  46:main.c        **** 
  47:main.c        **** void testLedMatrix(void);
  48:main.c        **** void testLcd(void);
  49:main.c        **** void testMotor(void);
  50:main.c        **** void testRGB(void);
  51:main.c        **** void testI2C(void);
  52:main.c        **** void timer(void);
  53:main.c        **** 
  54:main.c        **** /*****************************************************************************
  55:main.c        ****  *
  56:main.c        ****  * Description:
  57:main.c        ****  *    The first function to execute 
  58:main.c        ****  *
  59:main.c        ****  ****************************************************************************/
  60:main.c        **** int
  61:main.c        **** main(void)
  62:main.c        **** {
  63:main.c        **** 	timerCnt = 0;
  64:main.c        ****   tU8 error;
  65:main.c        ****   tU8 pid;
  66:main.c        **** 
  67:main.c        ****   //immediately turn off buzzer (if connected)
  68:main.c        ****   IODIR0 |= 0x00000080;
  69:main.c        ****   IOSET0  = 0x00000080;
  70:main.c        ****   
  71:main.c        ****   osInit();
  72:main.c        ****   osCreateProcess(initProc, initStack, INIT_STACK_SIZE, &pid, 1, NULL, &error);
  73:main.c        ****   osStartProcess(pid, &error);
  74:main.c        ****   
  75:main.c        ****   osStart();
  76:main.c        ****   return 0;
  77:main.c        **** }
  78:main.c        **** 
  79:main.c        **** /*****************************************************************************
  80:main.c        ****  *
  81:main.c        ****  * Description:
  82:main.c        ****  *    A process entry function 
  83:main.c        ****  *
  84:main.c        ****  * Params:
  85:main.c        ****  *    [in] arg - This parameter is not used in this application. 
  86:main.c        ****  *
  87:main.c        ****  ****************************************************************************/
  88:main.c        **** static void
  89:main.c        **** proc1(void* arg)
  90:main.c        **** {
  91:main.c        **** 	tU8  centerReleased = TRUE;
  92:main.c        **** 	tU8  i;
ARM GAS  /cygdrive/c/DOCUME~1/mkwapisz/LOCALS~1/Temp/cc2WPCuc.s 			page 3


  93:main.c        **** 	tU32 pattern;
  94:main.c        ****   tU8  error;
  95:main.c        **** 
  96:main.c        **** 	for(;;)
  97:main.c        **** 	{
  98:main.c        ****     printf("\n\n\n\n\n*******************************************************\n");
  99:main.c        ****     printf("*                                                     *\n");
 100:main.c        ****     printf("* This is the test program for Embedded Artists'      *\n");
 101:main.c        ****     printf("* LPC2148 Education Board...                          *\n");
 102:main.c        ****     printf("*                                                     *\n");
 103:main.c        ****     printf("* Version: 1.1 (special version without MMC test)     *\n");
 104:main.c        ****     printf("* Date:    26 Nov 2005                                *\n");
 105:main.c        ****     printf("* (C) Embedded Artists 2005                           *\n");
 106:main.c        ****     printf("*                                                     *\n");
 107:main.c        ****     printf("*******************************************************\n");
 108:main.c        **** 
 109:main.c        ****  
 110:main.c        ****     //
 111:main.c        ****     //Test LEDs
 112:main.c        ****     //
 113:main.c        ****     PINSEL0 &= 0x0000ffff;
 114:main.c        ****     IODIR0  |= 0x0000ff00;
 115:main.c        ****     IOSET0   = 0x0000fb00;
 116:main.c        ****     IOCLR0   = 0x00000400;
 117:main.c        **** 
 118:main.c        ****     for(i=0; i<4; i++)
 119:main.c        ****     {
 120:main.c        ****       pattern = 0x00000100;
 121:main.c        ****       while(pattern <= 0x00008000)
 122:main.c        ****       {
 123:main.c        ****       	IOCLR = pattern;
 124:main.c        ****       	osSleep(20);
 125:main.c        ****       	IOSET0 = pattern;
 126:main.c        ****         IOCLR0 = 0x00000400; //P0.10 must always be low = LED on since motor control else will be e
 127:main.c        ****       	
 128:main.c        ****       	pattern <<= 1;
 129:main.c        ****       }
 130:main.c        ****     }
 131:main.c        ****     //flash with P0.10 (with P0.8 and P0.9 low)
 132:main.c        ****     IOCLR0 = 0x00000700;
 133:main.c        ****     osSleep(20);
 134:main.c        ****     IOSET0 = 0x00000400;
 135:main.c        ****    	osSleep(20);
 136:main.c        ****     IOCLR0 = 0x00000400;
 137:main.c        ****     osSleep(20);
 138:main.c        ****     IOSET0 = 0x00000400;
 139:main.c        ****    	osSleep(20);
 140:main.c        ****     IOCLR0 = 0x00000400;
 141:main.c        ****     osSleep(20);
 142:main.c        ****     IOSET0 = 0x00000400;
 143:main.c        ****     
 144:main.c        ****     
 145:main.c        ****     //
 146:main.c        ****     //Test EEPROM via I2C
 147:main.c        ****     //
 148:main.c        ****     testI2C();
 149:main.c        **** 
ARM GAS  /cygdrive/c/DOCUME~1/mkwapisz/LOCALS~1/Temp/cc2WPCuc.s 			page 4


 150:main.c        **** 
 151:main.c        ****     //
 152:main.c        ****     //Start the rest of the processes
 153:main.c        ****     //
 154:main.c        ****     osCreateProcess(proc2, proc2Stack, PROC2_STACK_SIZE, &pid2, 3, NULL, &error);
 155:main.c        ****     osStartProcess(pid2, &error);
 156:main.c        ****     osCreateProcess(proc3, proc3Stack, PROC3_STACK_SIZE, &pid3, 3, NULL, &error);
 157:main.c        ****     osStartProcess(pid3, &error);
 158:main.c        ****     osCreateProcess(proc4, proc4Stack, PROC4_STACK_SIZE, &pid4, 3, NULL, &error);
 159:main.c        ****     osStartProcess(pid4, &error);
 160:main.c        ****     osCreateProcess(proc5, proc5Stack, PROC5_STACK_SIZE, &pid5, 3, NULL, &error);
 161:main.c        ****     osStartProcess(pid5, &error);
 162:main.c        **** 
 163:main.c        **** 
 164:main.c        ****     //wait for a short while
 165:main.c        ****     osSleep(100);
 166:main.c        ****     
 167:main.c        ****     IOPIN &= ~0x001f0000;
 168:main.c        ****     for(;;)
 169:main.c        ****     {
 170:main.c        **** /*
 171:main.c        **** 		  if ((IOPIN & 0x00100000) == 0)
 172:main.c        ****         HID_SendReport(0,0,10);
 173:main.c        **** 		  else if ((IOPIN & 0x00080000) == 0)
 174:main.c        ****         HID_SendReport(0,-10,0);
 175:main.c        **** 		  else if ((IOPIN & 0x00040000) == 0)
 176:main.c        ****         HID_SendReport(0,10,0);
 177:main.c        **** 		  else if ((IOPIN & 0x00020000) == 0)
 178:main.c        ****  HID_SendReport(0,0,-10);
 179:main.c        **** */
 180:main.c        ****       if ((IOPIN & 0x00010000) == 0)
 181:main.c        ****       {
 182:main.c        ****       	if (centerReleased == TRUE)
 183:main.c        ****       	{
 184:main.c        **** //      		HID_SendReport(1,0,0);
 185:main.c        ****       		centerReleased = FALSE;
 186:main.c        ****       	}
 187:main.c        ****       }
 188:main.c        ****       else
 189:main.c        ****       {
 190:main.c        ****       	if (centerReleased == FALSE)
 191:main.c        ****   //    	  HID_SendReport(0,0,0);
 192:main.c        ****       	centerReleased = TRUE;
 193:main.c        ****       }
 194:main.c        **** 
 195:main.c        ****       osSleep(2);
 196:main.c        ****     }
 197:main.c        ****   }
 198:main.c        **** }
 199:main.c        **** 
 200:main.c        **** /*****************************************************************************
 201:main.c        ****  *
 202:main.c        ****  * Description:
 203:main.c        ****  *    A process entry function 
 204:main.c        ****  *
 205:main.c        ****  * Params:
 206:main.c        ****  *    [in] arg - This parameter is not used in this application. 
ARM GAS  /cygdrive/c/DOCUME~1/mkwapisz/LOCALS~1/Temp/cc2WPCuc.s 			page 5


 207:main.c        ****  *
 208:main.c        ****  ****************************************************************************/
 209:main.c        **** static void
 210:main.c        **** proc2(void* arg)
 211:main.c        **** {
 212:main.c        **** 	testLedMatrix();
 213:main.c        **** }
 214:main.c        **** 
 215:main.c        **** /*****************************************************************************
 216:main.c        ****  *
 217:main.c        ****  * Description:
 218:main.c        ****  *    A process entry function 
 219:main.c        ****  *
 220:main.c        ****  * Params:
 221:main.c        ****  *    [in] arg - This parameter is not used in this application. 
 222:main.c        ****  *
 223:main.c        ****  ****************************************************************************/
 224:main.c        **** static void
 225:main.c        **** proc3(void* arg)
 226:main.c        **** {
 227:main.c        **** 	testLcd();
 228:main.c        **** }
 229:main.c        **** 
 230:main.c        **** /*****************************************************************************
 231:main.c        ****  *
 232:main.c        ****  * Description:
 233:main.c        ****  *    A process entry function 
 234:main.c        ****  *
 235:main.c        ****  * Params:
 236:main.c        ****  *    [in] arg - This parameter is not used in this application. 
 237:main.c        ****  *
 238:main.c        ****  ****************************************************************************/
 239:main.c        **** static void
 240:main.c        **** proc4(void* arg)
 241:main.c        **** {
 242:main.c        **** 	for(;;)
 243:main.c        **** 	{
 244:main.c        **** 		testRGB();
 245:main.c        **** 		//testMotor();
 246:main.c        **** 	}
 247:main.c        **** }
 248:main.c        **** 
 249:main.c        **** /*****************************************************************************
 250:main.c        ****  *
 251:main.c        ****  * Description:
 252:main.c        ****  *    A process entry function 
 253:main.c        ****  *
 254:main.c        ****  * Params:
 255:main.c        ****  *    [in] arg - This parameter is not used in this application. 
 256:main.c        ****  *
 257:main.c        ****  ****************************************************************************/
 258:main.c        **** static void
 259:main.c        **** proc5(void* arg)
 260:main.c        **** {
 261:main.c        **** 	timer();
 262:main.c        **** }
 263:main.c        **** 
ARM GAS  /cygdrive/c/DOCUME~1/mkwapisz/LOCALS~1/Temp/cc2WPCuc.s 			page 6


 264:main.c        **** /*****************************************************************************
 265:main.c        ****  *
 266:main.c        ****  * Description:
 267:main.c        ****  *    The entry function for the initialization process. 
 268:main.c        ****  *
 269:main.c        ****  * Params:
 270:main.c        ****  *    [in] arg - This parameter is not used in this application. 
 271:main.c        ****  *
 272:main.c        ****  ****************************************************************************/
 273:main.c        **** static void
 274:main.c        **** initProc(void* arg)
 275:main.c        **** {
 276:main.c        ****   tU8 error;
 277:main.c        **** 
 278:main.c        ****   eaInit();
 279:main.c        ****   osCreateProcess(proc1, proc1Stack, PROC1_STACK_SIZE, &pid1, 3, NULL, &error);
 280:main.c        ****   osStartProcess(pid1, &error);
 281:main.c        **** 
 282:main.c        ****   osDeleteProcess();
 283:main.c        **** }
 284:main.c        **** 
 285:main.c        **** /*****************************************************************************
 286:main.c        ****  *
 287:main.c        ****  * Description:
 288:main.c        ****  *    The timer tick entry function that is called once every timer tick
 289:main.c        ****  *    interrupt in the RTOS. Observe that any processing in this
 290:main.c        ****  *    function must be kept as short as possible since this function
 291:main.c        ****  *    execute in interrupt context.
 292:main.c        ****  *
 293:main.c        ****  * Params:
 294:main.c        ****  *    [in] elapsedTime - The number of elapsed milliseconds since last call.
 295:main.c        ****  *
 296:main.c        ****  ****************************************************************************/
 297:main.c        **** void
 298:main.c        **** appTick(tU32 elapsedTime)
 299:main.c        **** {
  19              		.loc 1 299 0
  20              	.LVL0:
  21              		@ lr needed for prologue
 300:main.c        **** }
  22              		.loc 1 300 0
  23              		@ sp needed for prologue
  24 0000 7047     		bx	lr
  25              	.LFE9:
  26              		.size	appTick, .-appTick
  27 0002 0000     		.align	2
  28              		.global	main
  29              		.code 16
  30              		.thumb_func
  31              		.type	main, %function
  32              	main:
  33              	.LFB2:
  34              		.loc 1 62 0
  35 0004 30B5     		push	{r4, r5, lr}
  36              	.LCFI0:
  37              		.loc 1 68 0
  38 0006 134A     		ldr	r2, .L5
ARM GAS  /cygdrive/c/DOCUME~1/mkwapisz/LOCALS~1/Temp/cc2WPCuc.s 			page 7


  39              		.loc 1 63 0
  40 0008 134B     		ldr	r3, .L5+4
  41 000a 0024     		mov	r4, #0
  42 000c 1C60     		str	r4, [r3]
  43              		.loc 1 68 0
  44 000e 1368     		ldr	r3, [r2]
  45 0010 8021     		mov	r1, #128
  46 0012 0B43     		orr	r3, r3, r1
  47 0014 1360     		str	r3, [r2]
  48              		.loc 1 69 0
  49 0016 114B     		ldr	r3, .L5+8
  50              		.loc 1 62 0
  51 0018 84B0     		sub	sp, sp, #16
  52              	.LCFI1:
  53              		.loc 1 69 0
  54 001a 1960     		str	r1, [r3]
  55              		.loc 1 72 0
  56 001c 6D46     		mov	r5, sp
  57              		.loc 1 71 0
  58 001e FFF7FEFF 		bl	osInit
  59              		.loc 1 72 0
  60 0022 0E35     		add	r5, r5, #14
  61 0024 0194     		str	r4, [sp, #4]
  62 0026 0123     		mov	r3, #1
  63 0028 6C46     		mov	r4, sp
  64 002a C822     		mov	r2, #200
  65 002c 5200     		lsl	r2, r2, #1
  66 002e 0093     		str	r3, [sp]
  67 0030 0F34     		add	r4, r4, #15
  68 0032 2B1C     		mov	r3, r5
  69 0034 0A48     		ldr	r0, .L5+12
  70 0036 0B49     		ldr	r1, .L5+16
  71 0038 0294     		str	r4, [sp, #8]
  72 003a FFF7FEFF 		bl	osCreateProcess
  73              	.LVL1:
  74              		.loc 1 73 0
  75 003e 2878     		ldrb	r0, [r5]
  76 0040 211C     		mov	r1, r4
  77 0042 FFF7FEFF 		bl	osStartProcess
  78              		.loc 1 75 0
  79 0046 FFF7FEFF 		bl	osStart
  80              		.loc 1 77 0
  81 004a 0020     		mov	r0, #0
  82 004c 04B0     		add	sp, sp, #16
  83              		@ sp needed for prologue
  84 004e 30BC     		pop	{r4, r5}
  85 0050 02BC     		pop	{r1}
  86 0052 0847     		bx	r1
  87              	.L6:
  88              		.align	2
  89              	.L5:
  90 0054 088002E0 		.word	-536707064
  91 0058 00000000 		.word	timerCnt
  92 005c 048002E0 		.word	-536707068
  93 0060 00000000 		.word	initProc
  94 0064 04280000 		.word	initStack
  95              	.LFE2:
ARM GAS  /cygdrive/c/DOCUME~1/mkwapisz/LOCALS~1/Temp/cc2WPCuc.s 			page 8


  96              		.size	main, .-main
  97              		.align	2
  98              		.code 16
  99              		.thumb_func
 100              		.type	initProc, %function
 101              	initProc:
 102              	.LFB8:
 103              		.loc 1 275 0
 104 0068 30B5     		push	{r4, r5, lr}
 105              	.LCFI2:
 106              	.LVL2:
 107 006a 84B0     		sub	sp, sp, #16
 108              	.LCFI3:
 109              		.loc 1 278 0
 110 006c FFF7FEFF 		bl	eaInit
 111              	.LVL3:
 112              		.loc 1 279 0
 113 0070 0C4D     		ldr	r5, .L9
 114 0072 0323     		mov	r3, #3
 115 0074 0093     		str	r3, [sp]
 116 0076 6C46     		mov	r4, sp
 117 0078 0023     		mov	r3, #0
 118 007a 8022     		mov	r2, #128
 119 007c 1201     		lsl	r2, r2, #4
 120 007e 0193     		str	r3, [sp, #4]
 121 0080 0F34     		add	r4, r4, #15
 122 0082 2B1C     		mov	r3, r5
 123 0084 0848     		ldr	r0, .L9+4
 124 0086 0949     		ldr	r1, .L9+8
 125 0088 0294     		str	r4, [sp, #8]
 126 008a FFF7FEFF 		bl	osCreateProcess
 127              		.loc 1 280 0
 128 008e 2878     		ldrb	r0, [r5]
 129 0090 211C     		mov	r1, r4
 130 0092 FFF7FEFF 		bl	osStartProcess
 131              		.loc 1 282 0
 132 0096 FFF7FEFF 		bl	osDeleteProcess
 133              		.loc 1 283 0
 134 009a 04B0     		add	sp, sp, #16
 135              		@ sp needed for prologue
 136 009c 30BC     		pop	{r4, r5}
 137 009e 01BC     		pop	{r0}
 138 00a0 0047     		bx	r0
 139              	.L10:
 140 00a2 0000     		.align	2
 141              	.L9:
 142 00a4 94290000 		.word	pid1
 143 00a8 00000000 		.word	proc1
 144 00ac 04000000 		.word	proc1Stack
 145              	.LFE8:
 146              		.size	initProc, .-initProc
 147              		.section	.rodata.str1.4,"aMS",%progbits,1
 148              		.align	2
 149              	.LC6:
 150 0000 0A0A0A0A 		.ascii	"\012\012\012\012\012*******************************"
 150      0A2A2A2A 
 150      2A2A2A2A 
ARM GAS  /cygdrive/c/DOCUME~1/mkwapisz/LOCALS~1/Temp/cc2WPCuc.s 			page 9


 150      2A2A2A2A 
 150      2A2A2A2A 
 151 0024 2A2A2A2A 		.ascii	"************************\012\000"
 151      2A2A2A2A 
 151      2A2A2A2A 
 151      2A2A2A2A 
 151      2A2A2A2A 
 152 003e 0000     		.align	2
 153              	.LC8:
 154 0040 2A202020 		.ascii	"*                                                  "
 154      20202020 
 154      20202020 
 154      20202020 
 154      20202020 
 155 0073 2020202A 		.ascii	"   *\012\000"
 155      0A00
 156 0079 000000   		.align	2
 157              	.LC10:
 158 007c 2A205468 		.ascii	"* This is the test program for Embedded Artists'   "
 158      69732069 
 158      73207468 
 158      65207465 
 158      73742070 
 159 00af 2020202A 		.ascii	"   *\012\000"
 159      0A00
 160 00b5 000000   		.align	2
 161              	.LC12:
 162 00b8 2A204C50 		.ascii	"* LPC2148 Education Board...                       "
 162      43323134 
 162      38204564 
 162      75636174 
 162      696F6E20 
 163 00eb 2020202A 		.ascii	"   *\012\000"
 163      0A00
 164 00f1 000000   		.align	2
 165              	.LC14:
 166 00f4 2A205665 		.ascii	"* Version: 1.1 (special version without MMC test)  "
 166      7273696F 
 166      6E3A2031 
 166      2E312028 
 166      73706563 
 167 0127 2020202A 		.ascii	"   *\012\000"
 167      0A00
 168 012d 000000   		.align	2
 169              	.LC16:
 170 0130 2A204461 		.ascii	"* Date:    26 Nov 2005                             "
 170      74653A20 
 170      20202032 
 170      36204E6F 
 170      76203230 
 171 0163 2020202A 		.ascii	"   *\012\000"
 171      0A00
 172 0169 000000   		.align	2
 173              	.LC18:
 174 016c 2A202843 		.ascii	"* (C) Embedded Artists 2005                        "
 174      2920456D 
 174      62656464 
ARM GAS  /cygdrive/c/DOCUME~1/mkwapisz/LOCALS~1/Temp/cc2WPCuc.s 			page 10


 174      65642041 
 174      72746973 
 175 019f 2020202A 		.ascii	"   *\012\000"
 175      0A00
 176 01a5 000000   		.align	2
 177              	.LC20:
 178 01a8 2A2A2A2A 		.ascii	"***************************************************"
 178      2A2A2A2A 
 178      2A2A2A2A 
 178      2A2A2A2A 
 178      2A2A2A2A 
 179 01db 2A2A2A2A 		.ascii	"****\012\000"
 179      0A00
 180 01e1 000000   		.text
 181              		.align	2
 182              		.code 16
 183              		.thumb_func
 184              		.type	proc1, %function
 185              	proc1:
 186              	.LFB3:
 187              		.loc 1 90 0
 188 00b0 F0B5     		push	{r4, r5, r6, r7, lr}
 189              	.LCFI4:
 190              	.LVL4:
 191 00b2 85B0     		sub	sp, sp, #20
 192              	.LCFI5:
 193              		.loc 1 98 0
 194 00b4 5B48     		ldr	r0, .L22
 195              	.LVL5:
 196 00b6 FFF7FEFF 		bl	simplePrintf
 197              		.loc 1 99 0
 198 00ba 5B4C     		ldr	r4, .L22+4
 199 00bc 201C     		mov	r0, r4
 200 00be FFF7FEFF 		bl	simplePrintf
 201              		.loc 1 100 0
 202 00c2 5A48     		ldr	r0, .L22+8
 203 00c4 FFF7FEFF 		bl	simplePrintf
 204              		.loc 1 101 0
 205 00c8 5948     		ldr	r0, .L22+12
 206 00ca FFF7FEFF 		bl	simplePrintf
 207              		.loc 1 102 0
 208 00ce 201C     		mov	r0, r4
 209 00d0 FFF7FEFF 		bl	simplePrintf
 210              		.loc 1 103 0
 211 00d4 5748     		ldr	r0, .L22+16
 212 00d6 FFF7FEFF 		bl	simplePrintf
 213              		.loc 1 104 0
 214 00da 5748     		ldr	r0, .L22+20
 215 00dc FFF7FEFF 		bl	simplePrintf
 216              		.loc 1 105 0
 217 00e0 5648     		ldr	r0, .L22+24
 218 00e2 FFF7FEFF 		bl	simplePrintf
 219              		.loc 1 106 0
 220 00e6 201C     		mov	r0, r4
 221 00e8 FFF7FEFF 		bl	simplePrintf
 222              		.loc 1 107 0
 223 00ec 5448     		ldr	r0, .L22+28
ARM GAS  /cygdrive/c/DOCUME~1/mkwapisz/LOCALS~1/Temp/cc2WPCuc.s 			page 11


 224 00ee FFF7FEFF 		bl	simplePrintf
 225              		.loc 1 113 0
 226 00f2 5449     		ldr	r1, .L22+32
 227 00f4 544A     		ldr	r2, .L22+36
 228 00f6 0B68     		ldr	r3, [r1]
 229 00f8 1340     		and	r3, r3, r2
 230 00fa 0B60     		str	r3, [r1]
 231              		.loc 1 114 0
 232 00fc 5349     		ldr	r1, .L22+40
 233 00fe FF23     		mov	r3, #255
 234 0100 0A68     		ldr	r2, [r1]
 235 0102 1B02     		lsl	r3, r3, #8
 236 0104 1A43     		orr	r2, r2, r3
 237 0106 0A60     		str	r2, [r1]
 238              		.loc 1 115 0
 239 0108 FB23     		mov	r3, #251
 240 010a 514A     		ldr	r2, .L22+44
 241 010c 1B02     		lsl	r3, r3, #8
 242 010e 1360     		str	r3, [r2]
 243              		.loc 1 116 0
 244 0110 8023     		mov	r3, #128
 245 0112 DB00     		lsl	r3, r3, #3
 246 0114 0832     		add	r2, r2, #8
 247 0116 1360     		str	r3, [r2]
 248 0118 0023     		mov	r3, #0
 249 011a 0393     		str	r3, [sp, #12]
 250              	.LVL6:
 251 011c 7EE0     		b	.L12
 252              	.LVL7:
 253              	.L13:
 254              		.loc 1 123 0
 255 011e 4D4F     		ldr	r7, .L22+48
 256              		.loc 1 124 0
 257 0120 1420     		mov	r0, #20
 258              		.loc 1 123 0
 259 0122 3C60     		str	r4, [r7]
 260              		.loc 1 124 0
 261 0124 FFF7FEFF 		bl	osSleep
 262              		.loc 1 126 0
 263 0128 8026     		mov	r6, #128
 264              		.loc 1 125 0
 265 012a 494B     		ldr	r3, .L22+44
 266              		.loc 1 126 0
 267 012c F600     		lsl	r6, r6, #3
 268              		.loc 1 128 0
 269 012e 0135     		add	r5, r5, #1
 270              		.loc 1 125 0
 271 0130 1C60     		str	r4, [r3]
 272              		.loc 1 126 0
 273 0132 3E60     		str	r6, [r7]
 274              		.loc 1 128 0
 275 0134 6400     		lsl	r4, r4, #1
 276              		.loc 1 121 0
 277 0136 082D     		cmp	r5, #8
 278 0138 F1D1     		bne	.L13
 279              		.loc 1 118 0
 280 013a 039B     		ldr	r3, [sp, #12]
ARM GAS  /cygdrive/c/DOCUME~1/mkwapisz/LOCALS~1/Temp/cc2WPCuc.s 			page 12


 281 013c 0133     		add	r3, r3, #1
 282 013e 1B06     		lsl	r3, r3, #24
 283 0140 1B0E     		lsr	r3, r3, #24
 284 0142 0393     		str	r3, [sp, #12]
 285 0144 042B     		cmp	r3, #4
 286 0146 69D1     		bne	.L12
 287              		.loc 1 132 0
 288 0148 E023     		mov	r3, #224
 289 014a DB00     		lsl	r3, r3, #3
 290 014c 3B60     		str	r3, [r7]
 291              		.loc 1 133 0
 292 014e 1420     		mov	r0, #20
 293 0150 FFF7FEFF 		bl	osSleep
 294              		.loc 1 134 0
 295 0154 3E4B     		ldr	r3, .L22+44
 296              		.loc 1 135 0
 297 0156 1420     		mov	r0, #20
 298              		.loc 1 134 0
 299 0158 1E60     		str	r6, [r3]
 300              		.loc 1 135 0
 301 015a FFF7FEFF 		bl	osSleep
 302              		.loc 1 136 0
 303 015e 3E60     		str	r6, [r7]
 304              		.loc 1 137 0
 305 0160 1420     		mov	r0, #20
 306 0162 FFF7FEFF 		bl	osSleep
 307              		.loc 1 138 0
 308 0166 3A4B     		ldr	r3, .L22+44
 309              		.loc 1 139 0
 310 0168 1420     		mov	r0, #20
 311              		.loc 1 138 0
 312 016a 1E60     		str	r6, [r3]
 313              		.loc 1 139 0
 314 016c FFF7FEFF 		bl	osSleep
 315              		.loc 1 140 0
 316 0170 3E60     		str	r6, [r7]
 317              		.loc 1 141 0
 318 0172 1420     		mov	r0, #20
 319 0174 FFF7FEFF 		bl	osSleep
 320              		.loc 1 142 0
 321 0178 354B     		ldr	r3, .L22+44
 322 017a 1E60     		str	r6, [r3]
 323              		.loc 1 148 0
 324 017c FFF7FEFF 		bl	testI2C
 325              		.loc 1 154 0
 326 0180 354D     		ldr	r5, .L22+52
 327 0182 6C46     		mov	r4, sp
 328              	.LVL8:
 329 0184 8022     		mov	r2, #128
 330 0186 1334     		add	r4, r4, #19
 331 0188 0327     		mov	r7, #3
 332 018a 0026     		mov	r6, #0
 333 018c 2B1C     		mov	r3, r5
 334 018e 1201     		lsl	r2, r2, #4
 335 0190 3248     		ldr	r0, .L22+56
 336 0192 3349     		ldr	r1, .L22+60
 337 0194 0097     		str	r7, [sp]
ARM GAS  /cygdrive/c/DOCUME~1/mkwapisz/LOCALS~1/Temp/cc2WPCuc.s 			page 13


 338 0196 0196     		str	r6, [sp, #4]
 339 0198 0294     		str	r4, [sp, #8]
 340 019a FFF7FEFF 		bl	osCreateProcess
 341              		.loc 1 155 0
 342 019e 2878     		ldrb	r0, [r5]
 343 01a0 211C     		mov	r1, r4
 344 01a2 FFF7FEFF 		bl	osStartProcess
 345              		.loc 1 156 0
 346 01a6 2F4D     		ldr	r5, .L22+64
 347 01a8 8022     		mov	r2, #128
 348 01aa 2B1C     		mov	r3, r5
 349 01ac 1201     		lsl	r2, r2, #4
 350 01ae 2E48     		ldr	r0, .L22+68
 351 01b0 2E49     		ldr	r1, .L22+72
 352 01b2 0097     		str	r7, [sp]
 353 01b4 0196     		str	r6, [sp, #4]
 354 01b6 0294     		str	r4, [sp, #8]
 355 01b8 FFF7FEFF 		bl	osCreateProcess
 356              		.loc 1 157 0
 357 01bc 2878     		ldrb	r0, [r5]
 358 01be 211C     		mov	r1, r4
 359 01c0 FFF7FEFF 		bl	osStartProcess
 360              		.loc 1 158 0
 361 01c4 2A4D     		ldr	r5, .L22+76
 362 01c6 8022     		mov	r2, #128
 363 01c8 2B1C     		mov	r3, r5
 364 01ca 1201     		lsl	r2, r2, #4
 365 01cc 2948     		ldr	r0, .L22+80
 366 01ce 2A49     		ldr	r1, .L22+84
 367 01d0 0097     		str	r7, [sp]
 368 01d2 0196     		str	r6, [sp, #4]
 369 01d4 0294     		str	r4, [sp, #8]
 370 01d6 FFF7FEFF 		bl	osCreateProcess
 371              		.loc 1 159 0
 372 01da 2878     		ldrb	r0, [r5]
 373 01dc 211C     		mov	r1, r4
 374 01de FFF7FEFF 		bl	osStartProcess
 375              		.loc 1 160 0
 376 01e2 264D     		ldr	r5, .L22+88
 377 01e4 8022     		mov	r2, #128
 378 01e6 1201     		lsl	r2, r2, #4
 379 01e8 2B1C     		mov	r3, r5
 380 01ea 2548     		ldr	r0, .L22+92
 381 01ec 2549     		ldr	r1, .L22+96
 382 01ee 0097     		str	r7, [sp]
 383 01f0 0196     		str	r6, [sp, #4]
 384 01f2 0294     		str	r4, [sp, #8]
 385 01f4 FFF7FEFF 		bl	osCreateProcess
 386              		.loc 1 161 0
 387 01f8 211C     		mov	r1, r4
 388 01fa 2878     		ldrb	r0, [r5]
 389 01fc FFF7FEFF 		bl	osStartProcess
 390              		.loc 1 165 0
 391 0200 6420     		mov	r0, #100
 392 0202 FFF7FEFF 		bl	osSleep
 393              		.loc 1 167 0
 394 0206 2049     		ldr	r1, .L22+100
ARM GAS  /cygdrive/c/DOCUME~1/mkwapisz/LOCALS~1/Temp/cc2WPCuc.s 			page 14


 395 0208 204A     		ldr	r2, .L22+104
 396 020a 0B68     		ldr	r3, [r1]
 397 020c 1340     		and	r3, r3, r2
 398 020e 0B60     		str	r3, [r1]
 399              	.L16:
 400              		.loc 1 180 0
 401 0210 1D4B     		ldr	r3, .L22+100
 402              		.loc 1 195 0
 403 0212 0220     		mov	r0, #2
 404              		.loc 1 180 0
 405 0214 1B68     		ldr	r3, [r3]
 406              		.loc 1 195 0
 407 0216 FFF7FEFF 		bl	osSleep
 408 021a F9E7     		b	.L16
 409              	.LVL9:
 410              	.L12:
 411              		.loc 1 196 0
 412 021c 8024     		mov	r4, #128
 413 021e 6400     		lsl	r4, r4, #1
 414 0220 0025     		mov	r5, #0
 415 0222 7CE7     		b	.L13
 416              	.L23:
 417              		.align	2
 418              	.L22:
 419 0224 00000000 		.word	.LC6
 420 0228 40000000 		.word	.LC8
 421 022c 7C000000 		.word	.LC10
 422 0230 B8000000 		.word	.LC12
 423 0234 F4000000 		.word	.LC14
 424 0238 30010000 		.word	.LC16
 425 023c 6C010000 		.word	.LC18
 426 0240 A8010000 		.word	.LC20
 427 0244 00C002E0 		.word	-536690688
 428 0248 FFFF0000 		.word	65535
 429 024c 088002E0 		.word	-536707064
 430 0250 048002E0 		.word	-536707068
 431 0254 0C8002E0 		.word	-536707060
 432 0258 95290000 		.word	pid2
 433 025c 00000000 		.word	proc2
 434 0260 04080000 		.word	proc2Stack
 435 0264 96290000 		.word	pid3
 436 0268 00000000 		.word	proc3
 437 026c 04100000 		.word	proc3Stack
 438 0270 97290000 		.word	pid4
 439 0274 00000000 		.word	proc4
 440 0278 04180000 		.word	proc4Stack
 441 027c 98290000 		.word	pid5
 442 0280 00000000 		.word	proc5
 443 0284 04200000 		.word	proc5Stack
 444 0288 008002E0 		.word	-536707072
 445 028c FFFFE0FF 		.word	-2031617
 446              	.LFE3:
 447              		.size	proc1, .-proc1
 448              		.align	2
 449              		.code 16
 450              		.thumb_func
 451              		.type	proc5, %function
ARM GAS  /cygdrive/c/DOCUME~1/mkwapisz/LOCALS~1/Temp/cc2WPCuc.s 			page 15


 452              	proc5:
 453              	.LFB7:
 454              		.loc 1 260 0
 455 0290 00B5     		push	{lr}
 456              	.LCFI6:
 457              	.LVL10:
 458              		.loc 1 261 0
 459 0292 FFF7FEFF 		bl	timer
 460              	.LVL11:
 461              		.loc 1 262 0
 462              		@ sp needed for prologue
 463 0296 01BC     		pop	{r0}
 464 0298 0047     		bx	r0
 465              	.LFE7:
 466              		.size	proc5, .-proc5
 467 029a 0000     		.align	2
 468              		.code 16
 469              		.thumb_func
 470              		.type	proc4, %function
 471              	proc4:
 472              	.LFB6:
 473              		.loc 1 241 0
 474 029c 00B5     		push	{lr}
 475              	.LCFI7:
 476              	.LVL12:
 477              	.L28:
 478              		.loc 1 244 0
 479 029e FFF7FEFF 		bl	testRGB
 480              	.LVL13:
 481 02a2 FCE7     		b	.L28
 482              	.LFE6:
 483              		.size	proc4, .-proc4
 484              		.align	2
 485              		.code 16
 486              		.thumb_func
 487              		.type	proc3, %function
 488              	proc3:
 489              	.LFB5:
 490              		.loc 1 226 0
 491 02a4 00B5     		push	{lr}
 492              	.LCFI8:
 493              	.LVL14:
 494              		.loc 1 227 0
 495 02a6 FFF7FEFF 		bl	testLcd
 496              	.LVL15:
 497              		.loc 1 228 0
 498              		@ sp needed for prologue
 499 02aa 01BC     		pop	{r0}
 500 02ac 0047     		bx	r0
 501              	.LFE5:
 502              		.size	proc3, .-proc3
 503 02ae 0000     		.align	2
 504              		.code 16
 505              		.thumb_func
 506              		.type	proc2, %function
 507              	proc2:
 508              	.LFB4:
ARM GAS  /cygdrive/c/DOCUME~1/mkwapisz/LOCALS~1/Temp/cc2WPCuc.s 			page 16


 509              		.loc 1 211 0
 510 02b0 00B5     		push	{lr}
 511              	.LCFI9:
 512              	.LVL16:
 513              		.loc 1 212 0
 514 02b2 FFF7FEFF 		bl	testLedMatrix
 515              	.LVL17:
 516              		.loc 1 213 0
 517              		@ sp needed for prologue
 518 02b6 01BC     		pop	{r0}
 519 02b8 0047     		bx	r0
 520              	.LFE4:
 521              		.size	proc2, .-proc2
 522              		.global	timerCnt
 523              		.bss
 524              		.align	2
 525              		.type	timerCnt, %object
 526              		.size	timerCnt, 4
 527              	timerCnt:
 528 0000 00000000 		.space	4
 529              	proc1Stack:
 530 0004 00000000 		.space	2048
 530      00000000 
 530      00000000 
 530      00000000 
 530      00000000 
 531              	proc2Stack:
 532 0804 00000000 		.space	2048
 532      00000000 
 532      00000000 
 532      00000000 
 532      00000000 
 533              	proc3Stack:
 534 1004 00000000 		.space	2048
 534      00000000 
 534      00000000 
 534      00000000 
 534      00000000 
 535              	proc4Stack:
 536 1804 00000000 		.space	2048
 536      00000000 
 536      00000000 
 536      00000000 
 536      00000000 
 537              	proc5Stack:
 538 2004 00000000 		.space	2048
 538      00000000 
 538      00000000 
 538      00000000 
 538      00000000 
 539              	initStack:
 540 2804 00000000 		.space	400
 540      00000000 
 540      00000000 
 540      00000000 
 540      00000000 
 541              	pid1:
ARM GAS  /cygdrive/c/DOCUME~1/mkwapisz/LOCALS~1/Temp/cc2WPCuc.s 			page 17


 542 2994 00       		.space	1
 543              	pid2:
 544 2995 00       		.space	1
 545              	pid3:
 546 2996 00       		.space	1
 547              	pid4:
 548 2997 00       		.space	1
 549              	pid5:
 550 2998 00       		.space	1
 551 2999 000000   		.section	.debug_frame,"",%progbits
 552              	.Lframe0:
 553 0000 0C000000 		.4byte	.LECIE0-.LSCIE0
 554              	.LSCIE0:
 555 0004 FFFFFFFF 		.4byte	0xffffffff
 556 0008 01       		.byte	0x1
 557 0009 00       		.ascii	"\000"
 558 000a 01       		.uleb128 0x1
 559 000b 7C       		.sleb128 -4
 560 000c 0E       		.byte	0xe
 561 000d 0C       		.byte	0xc
 562 000e 0D       		.uleb128 0xd
 563 000f 00       		.uleb128 0x0
 564              		.align	2
 565              	.LECIE0:
 566              	.LSFDE0:
 567 0010 0C000000 		.4byte	.LEFDE0-.LASFDE0
 568              	.LASFDE0:
 569 0014 00000000 		.4byte	.Lframe0
 570 0018 00000000 		.4byte	.LFB9
 571 001c 02000000 		.4byte	.LFE9-.LFB9
 572              		.align	2
 573              	.LEFDE0:
 574              	.LSFDE2:
 575 0020 18000000 		.4byte	.LEFDE2-.LASFDE2
 576              	.LASFDE2:
 577 0024 00000000 		.4byte	.Lframe0
 578 0028 04000000 		.4byte	.LFB2
 579 002c 64000000 		.4byte	.LFE2-.LFB2
 580 0030 42       		.byte	0x4
 581              		.4byte	.LCFI0-.LFB2
 582 0031 0E       		.byte	0xe
 583 0032 0C       		.uleb128 0xc
 584 0033 84       		.byte	0x84
 585 0034 03       		.uleb128 0x3
 586 0035 85       		.byte	0x85
 587 0036 02       		.uleb128 0x2
 588 0037 8E       		.byte	0x8e
 589 0038 01       		.uleb128 0x1
 590 0039 54       		.byte	0x4
 591              		.4byte	.LCFI1-.LCFI0
 592 003a 0E       		.byte	0xe
 593 003b 1C       		.uleb128 0x1c
 594              		.align	2
 595              	.LEFDE2:
 596              	.LSFDE4:
 597 003c 18000000 		.4byte	.LEFDE4-.LASFDE4
 598              	.LASFDE4:
ARM GAS  /cygdrive/c/DOCUME~1/mkwapisz/LOCALS~1/Temp/cc2WPCuc.s 			page 18


 599 0040 00000000 		.4byte	.Lframe0
 600 0044 68000000 		.4byte	.LFB8
 601 0048 48000000 		.4byte	.LFE8-.LFB8
 602 004c 42       		.byte	0x4
 603              		.4byte	.LCFI2-.LFB8
 604 004d 0E       		.byte	0xe
 605 004e 0C       		.uleb128 0xc
 606 004f 84       		.byte	0x84
 607 0050 03       		.uleb128 0x3
 608 0051 85       		.byte	0x85
 609 0052 02       		.uleb128 0x2
 610 0053 8E       		.byte	0x8e
 611 0054 01       		.uleb128 0x1
 612 0055 42       		.byte	0x4
 613              		.4byte	.LCFI3-.LCFI2
 614 0056 0E       		.byte	0xe
 615 0057 1C       		.uleb128 0x1c
 616              		.align	2
 617              	.LEFDE4:
 618              	.LSFDE6:
 619 0058 1C000000 		.4byte	.LEFDE6-.LASFDE6
 620              	.LASFDE6:
 621 005c 00000000 		.4byte	.Lframe0
 622 0060 B0000000 		.4byte	.LFB3
 623 0064 E0010000 		.4byte	.LFE3-.LFB3
 624 0068 42       		.byte	0x4
 625              		.4byte	.LCFI4-.LFB3
 626 0069 0E       		.byte	0xe
 627 006a 14       		.uleb128 0x14
 628 006b 84       		.byte	0x84
 629 006c 05       		.uleb128 0x5
 630 006d 85       		.byte	0x85
 631 006e 04       		.uleb128 0x4
 632 006f 86       		.byte	0x86
 633 0070 03       		.uleb128 0x3
 634 0071 87       		.byte	0x87
 635 0072 02       		.uleb128 0x2
 636 0073 8E       		.byte	0x8e
 637 0074 01       		.uleb128 0x1
 638 0075 42       		.byte	0x4
 639              		.4byte	.LCFI5-.LCFI4
 640 0076 0E       		.byte	0xe
 641 0077 28       		.uleb128 0x28
 642              		.align	2
 643              	.LEFDE6:
 644              	.LSFDE8:
 645 0078 14000000 		.4byte	.LEFDE8-.LASFDE8
 646              	.LASFDE8:
 647 007c 00000000 		.4byte	.Lframe0
 648 0080 90020000 		.4byte	.LFB7
 649 0084 0A000000 		.4byte	.LFE7-.LFB7
 650 0088 42       		.byte	0x4
 651              		.4byte	.LCFI6-.LFB7
 652 0089 0E       		.byte	0xe
 653 008a 04       		.uleb128 0x4
 654 008b 8E       		.byte	0x8e
 655 008c 01       		.uleb128 0x1
ARM GAS  /cygdrive/c/DOCUME~1/mkwapisz/LOCALS~1/Temp/cc2WPCuc.s 			page 19


 656 008d 000000   		.align	2
 657              	.LEFDE8:
 658              	.LSFDE10:
 659 0090 14000000 		.4byte	.LEFDE10-.LASFDE10
 660              	.LASFDE10:
 661 0094 00000000 		.4byte	.Lframe0
 662 0098 9C020000 		.4byte	.LFB6
 663 009c 08000000 		.4byte	.LFE6-.LFB6
 664 00a0 42       		.byte	0x4
 665              		.4byte	.LCFI7-.LFB6
 666 00a1 0E       		.byte	0xe
 667 00a2 04       		.uleb128 0x4
 668 00a3 8E       		.byte	0x8e
 669 00a4 01       		.uleb128 0x1
 670 00a5 000000   		.align	2
 671              	.LEFDE10:
 672              	.LSFDE12:
 673 00a8 14000000 		.4byte	.LEFDE12-.LASFDE12
 674              	.LASFDE12:
 675 00ac 00000000 		.4byte	.Lframe0
 676 00b0 A4020000 		.4byte	.LFB5
 677 00b4 0A000000 		.4byte	.LFE5-.LFB5
 678 00b8 42       		.byte	0x4
 679              		.4byte	.LCFI8-.LFB5
 680 00b9 0E       		.byte	0xe
 681 00ba 04       		.uleb128 0x4
 682 00bb 8E       		.byte	0x8e
 683 00bc 01       		.uleb128 0x1
 684 00bd 000000   		.align	2
 685              	.LEFDE12:
 686              	.LSFDE14:
 687 00c0 14000000 		.4byte	.LEFDE14-.LASFDE14
 688              	.LASFDE14:
 689 00c4 00000000 		.4byte	.Lframe0
 690 00c8 B0020000 		.4byte	.LFB4
 691 00cc 0A000000 		.4byte	.LFE4-.LFB4
 692 00d0 42       		.byte	0x4
 693              		.4byte	.LCFI9-.LFB4
 694 00d1 0E       		.byte	0xe
 695 00d2 04       		.uleb128 0x4
 696 00d3 8E       		.byte	0x8e
 697 00d4 01       		.uleb128 0x1
 698 00d5 000000   		.align	2
 699              	.LEFDE14:
 700              		.file 2 "pre_emptive_os/api/../api/general.h"
 701              		.text
 702              	.Letext0:
 703 02ba C046     		.section	.debug_loc,"",%progbits
 704              	.Ldebug_loc0:
 705              	.LLST1:
 706 0000 04000000 		.4byte	.LFB2-.Ltext0
 707 0004 06000000 		.4byte	.LCFI0-.Ltext0
 708 0008 0100     		.2byte	0x1
 709 000a 5D       		.byte	0x5d
 710 000b 06000000 		.4byte	.LCFI0-.Ltext0
 711 000f 1A000000 		.4byte	.LCFI1-.Ltext0
 712 0013 0200     		.2byte	0x2
ARM GAS  /cygdrive/c/DOCUME~1/mkwapisz/LOCALS~1/Temp/cc2WPCuc.s 			page 20


 713 0015 7D       		.byte	0x7d
 714 0016 0C       		.sleb128 12
 715 0017 1A000000 		.4byte	.LCFI1-.Ltext0
 716 001b 68000000 		.4byte	.LFE2-.Ltext0
 717 001f 0200     		.2byte	0x2
 718 0021 7D       		.byte	0x7d
 719 0022 1C       		.sleb128 28
 720 0023 00000000 		.4byte	0x0
 721 0027 00000000 		.4byte	0x0
 722              	.LLST2:
 723 002b 68000000 		.4byte	.LFB8-.Ltext0
 724 002f 6A000000 		.4byte	.LCFI2-.Ltext0
 725 0033 0100     		.2byte	0x1
 726 0035 5D       		.byte	0x5d
 727 0036 6A000000 		.4byte	.LCFI2-.Ltext0
 728 003a 6C000000 		.4byte	.LCFI3-.Ltext0
 729 003e 0200     		.2byte	0x2
 730 0040 7D       		.byte	0x7d
 731 0041 0C       		.sleb128 12
 732 0042 6C000000 		.4byte	.LCFI3-.Ltext0
 733 0046 B0000000 		.4byte	.LFE8-.Ltext0
 734 004a 0200     		.2byte	0x2
 735 004c 7D       		.byte	0x7d
 736 004d 1C       		.sleb128 28
 737 004e 00000000 		.4byte	0x0
 738 0052 00000000 		.4byte	0x0
 739              	.LLST3:
 740 0056 6A000000 		.4byte	.LVL2-.Ltext0
 741 005a 70000000 		.4byte	.LVL3-.Ltext0
 742 005e 0100     		.2byte	0x1
 743 0060 50       		.byte	0x50
 744 0061 00000000 		.4byte	0x0
 745 0065 00000000 		.4byte	0x0
 746              	.LLST4:
 747 0069 B0000000 		.4byte	.LFB3-.Ltext0
 748 006d B2000000 		.4byte	.LCFI4-.Ltext0
 749 0071 0100     		.2byte	0x1
 750 0073 5D       		.byte	0x5d
 751 0074 B2000000 		.4byte	.LCFI4-.Ltext0
 752 0078 B4000000 		.4byte	.LCFI5-.Ltext0
 753 007c 0200     		.2byte	0x2
 754 007e 7D       		.byte	0x7d
 755 007f 14       		.sleb128 20
 756 0080 B4000000 		.4byte	.LCFI5-.Ltext0
 757 0084 90020000 		.4byte	.LFE3-.Ltext0
 758 0088 0200     		.2byte	0x2
 759 008a 7D       		.byte	0x7d
 760 008b 28       		.sleb128 40
 761 008c 00000000 		.4byte	0x0
 762 0090 00000000 		.4byte	0x0
 763              	.LLST5:
 764 0094 B2000000 		.4byte	.LVL4-.Ltext0
 765 0098 B6000000 		.4byte	.LVL5-.Ltext0
 766 009c 0100     		.2byte	0x1
 767 009e 50       		.byte	0x50
 768 009f 00000000 		.4byte	0x0
 769 00a3 00000000 		.4byte	0x0
ARM GAS  /cygdrive/c/DOCUME~1/mkwapisz/LOCALS~1/Temp/cc2WPCuc.s 			page 21


 770              	.LLST6:
 771 00a7 1E010000 		.4byte	.LVL7-.Ltext0
 772 00ab 84010000 		.4byte	.LVL8-.Ltext0
 773 00af 0100     		.2byte	0x1
 774 00b1 54       		.byte	0x54
 775 00b2 1C020000 		.4byte	.LVL9-.Ltext0
 776 00b6 90020000 		.4byte	.LFE3-.Ltext0
 777 00ba 0100     		.2byte	0x1
 778 00bc 54       		.byte	0x54
 779 00bd 00000000 		.4byte	0x0
 780 00c1 00000000 		.4byte	0x0
 781              	.LLST7:
 782 00c5 90020000 		.4byte	.LFB7-.Ltext0
 783 00c9 92020000 		.4byte	.LCFI6-.Ltext0
 784 00cd 0100     		.2byte	0x1
 785 00cf 5D       		.byte	0x5d
 786 00d0 92020000 		.4byte	.LCFI6-.Ltext0
 787 00d4 9A020000 		.4byte	.LFE7-.Ltext0
 788 00d8 0200     		.2byte	0x2
 789 00da 7D       		.byte	0x7d
 790 00db 04       		.sleb128 4
 791 00dc 00000000 		.4byte	0x0
 792 00e0 00000000 		.4byte	0x0
 793              	.LLST8:
 794 00e4 92020000 		.4byte	.LVL10-.Ltext0
 795 00e8 96020000 		.4byte	.LVL11-.Ltext0
 796 00ec 0100     		.2byte	0x1
 797 00ee 50       		.byte	0x50
 798 00ef 00000000 		.4byte	0x0
 799 00f3 00000000 		.4byte	0x0
 800              	.LLST9:
 801 00f7 9C020000 		.4byte	.LFB6-.Ltext0
 802 00fb 9E020000 		.4byte	.LCFI7-.Ltext0
 803 00ff 0100     		.2byte	0x1
 804 0101 5D       		.byte	0x5d
 805 0102 9E020000 		.4byte	.LCFI7-.Ltext0
 806 0106 A4020000 		.4byte	.LFE6-.Ltext0
 807 010a 0200     		.2byte	0x2
 808 010c 7D       		.byte	0x7d
 809 010d 04       		.sleb128 4
 810 010e 00000000 		.4byte	0x0
 811 0112 00000000 		.4byte	0x0
 812              	.LLST10:
 813 0116 9E020000 		.4byte	.LVL12-.Ltext0
 814 011a A2020000 		.4byte	.LVL13-.Ltext0
 815 011e 0100     		.2byte	0x1
 816 0120 50       		.byte	0x50
 817 0121 00000000 		.4byte	0x0
 818 0125 00000000 		.4byte	0x0
 819              	.LLST11:
 820 0129 A4020000 		.4byte	.LFB5-.Ltext0
 821 012d A6020000 		.4byte	.LCFI8-.Ltext0
 822 0131 0100     		.2byte	0x1
 823 0133 5D       		.byte	0x5d
 824 0134 A6020000 		.4byte	.LCFI8-.Ltext0
 825 0138 AE020000 		.4byte	.LFE5-.Ltext0
 826 013c 0200     		.2byte	0x2
ARM GAS  /cygdrive/c/DOCUME~1/mkwapisz/LOCALS~1/Temp/cc2WPCuc.s 			page 22


 827 013e 7D       		.byte	0x7d
 828 013f 04       		.sleb128 4
 829 0140 00000000 		.4byte	0x0
 830 0144 00000000 		.4byte	0x0
 831              	.LLST12:
 832 0148 A6020000 		.4byte	.LVL14-.Ltext0
 833 014c AA020000 		.4byte	.LVL15-.Ltext0
 834 0150 0100     		.2byte	0x1
 835 0152 50       		.byte	0x50
 836 0153 00000000 		.4byte	0x0
 837 0157 00000000 		.4byte	0x0
 838              	.LLST13:
 839 015b B0020000 		.4byte	.LFB4-.Ltext0
 840 015f B2020000 		.4byte	.LCFI9-.Ltext0
 841 0163 0100     		.2byte	0x1
 842 0165 5D       		.byte	0x5d
 843 0166 B2020000 		.4byte	.LCFI9-.Ltext0
 844 016a BA020000 		.4byte	.LFE4-.Ltext0
 845 016e 0200     		.2byte	0x2
 846 0170 7D       		.byte	0x7d
 847 0171 04       		.sleb128 4
 848 0172 00000000 		.4byte	0x0
 849 0176 00000000 		.4byte	0x0
 850              	.LLST14:
 851 017a B2020000 		.4byte	.LVL16-.Ltext0
 852 017e B6020000 		.4byte	.LVL17-.Ltext0
 853 0182 0100     		.2byte	0x1
 854 0184 50       		.byte	0x50
 855 0185 00000000 		.4byte	0x0
 856 0189 00000000 		.4byte	0x0
 857              		.section	.debug_info
 858 0000 F2020000 		.4byte	0x2f2
 859 0004 0200     		.2byte	0x2
 860 0006 00000000 		.4byte	.Ldebug_abbrev0
 861 000a 04       		.byte	0x4
 862 000b 01       		.uleb128 0x1
 863 000c 00000000 		.4byte	.Ldebug_line0
 864 0010 BA020000 		.4byte	.Letext0
 865 0014 00000000 		.4byte	.Ltext0
 866 0018 D4000000 		.4byte	.LASF31
 867 001c 01       		.byte	0x1
 868 001d 8B000000 		.4byte	.LASF32
 869 0021 02010000 		.4byte	.LASF33
 870 0025 02       		.uleb128 0x2
 871 0026 74553800 		.ascii	"tU8\000"
 872 002a 02       		.byte	0x2
 873 002b 47       		.byte	0x47
 874 002c 30000000 		.4byte	0x30
 875 0030 03       		.uleb128 0x3
 876 0031 40000000 		.4byte	.LASF0
 877 0035 01       		.byte	0x1
 878 0036 08       		.byte	0x8
 879 0037 03       		.uleb128 0x3
 880 0038 70000000 		.4byte	.LASF1
 881 003c 02       		.byte	0x2
 882 003d 07       		.byte	0x7
 883 003e 04       		.uleb128 0x4
ARM GAS  /cygdrive/c/DOCUME~1/mkwapisz/LOCALS~1/Temp/cc2WPCuc.s 			page 23


 884 003f E0000000 		.4byte	.LASF2
 885 0043 02       		.byte	0x2
 886 0044 49       		.byte	0x49
 887 0045 49000000 		.4byte	0x49
 888 0049 03       		.uleb128 0x3
 889 004a A9000000 		.4byte	.LASF3
 890 004e 04       		.byte	0x4
 891 004f 07       		.byte	0x7
 892 0050 03       		.uleb128 0x3
 893 0051 39010000 		.4byte	.LASF4
 894 0055 01       		.byte	0x1
 895 0056 06       		.byte	0x6
 896 0057 03       		.uleb128 0x3
 897 0058 F2000000 		.4byte	.LASF5
 898 005c 02       		.byte	0x2
 899 005d 05       		.byte	0x5
 900 005e 05       		.uleb128 0x5
 901 005f 696E7400 		.ascii	"int\000"
 902 0063 04       		.byte	0x4
 903 0064 05       		.byte	0x5
 904 0065 03       		.uleb128 0x3
 905 0066 5E000000 		.4byte	.LASF6
 906 006a 04       		.byte	0x4
 907 006b 07       		.byte	0x7
 908 006c 06       		.uleb128 0x6
 909 006d 04       		.byte	0x4
 910 006e 07       		.uleb128 0x7
 911 006f 95000000 		.4byte	0x95
 912 0073 01       		.byte	0x1
 913 0074 E5000000 		.4byte	.LASF7
 914 0078 01       		.byte	0x1
 915 0079 2B01     		.2byte	0x12b
 916 007b 01       		.byte	0x1
 917 007c 00000000 		.4byte	.LFB9
 918 0080 02000000 		.4byte	.LFE9
 919 0084 01       		.byte	0x1
 920 0085 5D       		.byte	0x5d
 921 0086 08       		.uleb128 0x8
 922 0087 B6000000 		.4byte	.LASF10
 923 008b 01       		.byte	0x1
 924 008c 2A01     		.2byte	0x12a
 925 008e 3E000000 		.4byte	0x3e
 926 0092 01       		.byte	0x1
 927 0093 50       		.byte	0x50
 928 0094 00       		.byte	0x0
 929 0095 09       		.uleb128 0x9
 930 0096 CF000000 		.4byte	0xcf
 931 009a 01       		.byte	0x1
 932 009b A4000000 		.4byte	.LASF8
 933 009f 01       		.byte	0x1
 934 00a0 3E       		.byte	0x3e
 935 00a1 01       		.byte	0x1
 936 00a2 5E000000 		.4byte	0x5e
 937 00a6 04000000 		.4byte	.LFB2
 938 00aa 68000000 		.4byte	.LFE2
 939 00ae 00000000 		.4byte	.LLST1
 940 00b2 0A       		.uleb128 0xa
ARM GAS  /cygdrive/c/DOCUME~1/mkwapisz/LOCALS~1/Temp/cc2WPCuc.s 			page 24


 941 00b3 FC000000 		.4byte	.LASF9
 942 00b7 01       		.byte	0x1
 943 00b8 40       		.byte	0x40
 944 00b9 25000000 		.4byte	0x25
 945 00bd 02       		.byte	0x2
 946 00be 91       		.byte	0x91
 947 00bf 73       		.sleb128 -13
 948 00c0 0B       		.uleb128 0xb
 949 00c1 70696400 		.ascii	"pid\000"
 950 00c5 01       		.byte	0x1
 951 00c6 41       		.byte	0x41
 952 00c7 25000000 		.4byte	0x25
 953 00cb 02       		.byte	0x2
 954 00cc 75       		.byte	0x75
 955 00cd 00       		.sleb128 0
 956 00ce 00       		.byte	0x0
 957 00cf 0C       		.uleb128 0xc
 958 00d0 08010000 		.4byte	0x108
 959 00d4 CB000000 		.4byte	.LASF11
 960 00d8 01       		.byte	0x1
 961 00d9 1301     		.2byte	0x113
 962 00db 01       		.byte	0x1
 963 00dc 68000000 		.4byte	.LFB8
 964 00e0 B0000000 		.4byte	.LFE8
 965 00e4 2B000000 		.4byte	.LLST2
 966 00e8 0D       		.uleb128 0xd
 967 00e9 61726700 		.ascii	"arg\000"
 968 00ed 01       		.byte	0x1
 969 00ee 1201     		.2byte	0x112
 970 00f0 6C000000 		.4byte	0x6c
 971 00f4 56000000 		.4byte	.LLST3
 972 00f8 0E       		.uleb128 0xe
 973 00f9 FC000000 		.4byte	.LASF9
 974 00fd 01       		.byte	0x1
 975 00fe 1401     		.2byte	0x114
 976 0100 25000000 		.4byte	0x25
 977 0104 02       		.byte	0x2
 978 0105 91       		.byte	0x91
 979 0106 73       		.sleb128 -13
 980 0107 00       		.byte	0x0
 981 0108 0F       		.uleb128 0xf
 982 0109 64010000 		.4byte	0x164
 983 010d 92000000 		.4byte	.LASF12
 984 0111 01       		.byte	0x1
 985 0112 5A       		.byte	0x5a
 986 0113 01       		.byte	0x1
 987 0114 B0000000 		.4byte	.LFB3
 988 0118 90020000 		.4byte	.LFE3
 989 011c 69000000 		.4byte	.LLST4
 990 0120 10       		.uleb128 0x10
 991 0121 61726700 		.ascii	"arg\000"
 992 0125 01       		.byte	0x1
 993 0126 59       		.byte	0x59
 994 0127 6C000000 		.4byte	0x6c
 995 012b 94000000 		.4byte	.LLST5
 996 012f 11       		.uleb128 0x11
 997 0130 31000000 		.4byte	.LASF13
ARM GAS  /cygdrive/c/DOCUME~1/mkwapisz/LOCALS~1/Temp/cc2WPCuc.s 			page 25


 998 0134 01       		.byte	0x1
 999 0135 5B       		.byte	0x5b
 1000 0136 25000000 		.4byte	0x25
 1001 013a 0B       		.uleb128 0xb
 1002 013b 6900     		.ascii	"i\000"
 1003 013d 01       		.byte	0x1
 1004 013e 5C       		.byte	0x5c
 1005 013f 25000000 		.4byte	0x25
 1006 0143 02       		.byte	0x2
 1007 0144 91       		.byte	0x91
 1008 0145 78       		.sleb128 -8
 1009 0146 12       		.uleb128 0x12
 1010 0147 83000000 		.4byte	.LASF14
 1011 014b 01       		.byte	0x1
 1012 014c 5D       		.byte	0x5d
 1013 014d 3E000000 		.4byte	0x3e
 1014 0151 A7000000 		.4byte	.LLST6
 1015 0155 0A       		.uleb128 0xa
 1016 0156 FC000000 		.4byte	.LASF9
 1017 015a 01       		.byte	0x1
 1018 015b 5E       		.byte	0x5e
 1019 015c 25000000 		.4byte	0x25
 1020 0160 02       		.byte	0x2
 1021 0161 91       		.byte	0x91
 1022 0162 6B       		.sleb128 -21
 1023 0163 00       		.byte	0x0
 1024 0164 0C       		.uleb128 0xc
 1025 0165 8E010000 		.4byte	0x18e
 1026 0169 06000000 		.4byte	.LASF15
 1027 016d 01       		.byte	0x1
 1028 016e 0401     		.2byte	0x104
 1029 0170 01       		.byte	0x1
 1030 0171 90020000 		.4byte	.LFB7
 1031 0175 9A020000 		.4byte	.LFE7
 1032 0179 C5000000 		.4byte	.LLST7
 1033 017d 0D       		.uleb128 0xd
 1034 017e 61726700 		.ascii	"arg\000"
 1035 0182 01       		.byte	0x1
 1036 0183 0301     		.2byte	0x103
 1037 0185 6C000000 		.4byte	0x6c
 1038 0189 E4000000 		.4byte	.LLST8
 1039 018d 00       		.byte	0x0
 1040 018e 0F       		.uleb128 0xf
 1041 018f B6010000 		.4byte	0x1b6
 1042 0193 00000000 		.4byte	.LASF16
 1043 0197 01       		.byte	0x1
 1044 0198 F1       		.byte	0xf1
 1045 0199 01       		.byte	0x1
 1046 019a 9C020000 		.4byte	.LFB6
 1047 019e A4020000 		.4byte	.LFE6
 1048 01a2 F7000000 		.4byte	.LLST9
 1049 01a6 10       		.uleb128 0x10
 1050 01a7 61726700 		.ascii	"arg\000"
 1051 01ab 01       		.byte	0x1
 1052 01ac F0       		.byte	0xf0
 1053 01ad 6C000000 		.4byte	0x6c
 1054 01b1 16010000 		.4byte	.LLST10
ARM GAS  /cygdrive/c/DOCUME~1/mkwapisz/LOCALS~1/Temp/cc2WPCuc.s 			page 26


 1055 01b5 00       		.byte	0x0
 1056 01b6 0F       		.uleb128 0xf
 1057 01b7 DE010000 		.4byte	0x1de
 1058 01bb 9E000000 		.4byte	.LASF17
 1059 01bf 01       		.byte	0x1
 1060 01c0 E2       		.byte	0xe2
 1061 01c1 01       		.byte	0x1
 1062 01c2 A4020000 		.4byte	.LFB5
 1063 01c6 AE020000 		.4byte	.LFE5
 1064 01ca 29010000 		.4byte	.LLST11
 1065 01ce 10       		.uleb128 0x10
 1066 01cf 61726700 		.ascii	"arg\000"
 1067 01d3 01       		.byte	0x1
 1068 01d4 E1       		.byte	0xe1
 1069 01d5 6C000000 		.4byte	0x6c
 1070 01d9 48010000 		.4byte	.LLST12
 1071 01dd 00       		.byte	0x0
 1072 01de 0F       		.uleb128 0xf
 1073 01df 06020000 		.4byte	0x206
 1074 01e3 98000000 		.4byte	.LASF18
 1075 01e7 01       		.byte	0x1
 1076 01e8 D3       		.byte	0xd3
 1077 01e9 01       		.byte	0x1
 1078 01ea B0020000 		.4byte	.LFB4
 1079 01ee BA020000 		.4byte	.LFE4
 1080 01f2 5B010000 		.4byte	.LLST13
 1081 01f6 10       		.uleb128 0x10
 1082 01f7 61726700 		.ascii	"arg\000"
 1083 01fb 01       		.byte	0x1
 1084 01fc D2       		.byte	0xd2
 1085 01fd 6C000000 		.4byte	0x6c
 1086 0201 7A010000 		.4byte	.LLST14
 1087 0205 00       		.byte	0x0
 1088 0206 13       		.uleb128 0x13
 1089 0207 17020000 		.4byte	0x217
 1090 020b 25000000 		.4byte	0x25
 1091 020f 14       		.uleb128 0x14
 1092 0210 65000000 		.4byte	0x65
 1093 0214 FF07     		.2byte	0x7ff
 1094 0216 00       		.byte	0x0
 1095 0217 0A       		.uleb128 0xa
 1096 0218 4A010000 		.4byte	.LASF19
 1097 021c 01       		.byte	0x1
 1098 021d 1A       		.byte	0x1a
 1099 021e 06020000 		.4byte	0x206
 1100 0222 05       		.byte	0x5
 1101 0223 03       		.byte	0x3
 1102 0224 04000000 		.4byte	proc1Stack
 1103 0228 0A       		.uleb128 0xa
 1104 0229 16000000 		.4byte	.LASF20
 1105 022d 01       		.byte	0x1
 1106 022e 1B       		.byte	0x1b
 1107 022f 06020000 		.4byte	0x206
 1108 0233 05       		.byte	0x5
 1109 0234 03       		.byte	0x3
 1110 0235 04080000 		.4byte	proc2Stack
 1111 0239 0A       		.uleb128 0xa
ARM GAS  /cygdrive/c/DOCUME~1/mkwapisz/LOCALS~1/Temp/cc2WPCuc.s 			page 27


 1112 023a 53000000 		.4byte	.LASF21
 1113 023e 01       		.byte	0x1
 1114 023f 1C       		.byte	0x1c
 1115 0240 06020000 		.4byte	0x206
 1116 0244 05       		.byte	0x5
 1117 0245 03       		.byte	0x3
 1118 0246 04100000 		.4byte	proc3Stack
 1119 024a 0A       		.uleb128 0xa
 1120 024b 2E010000 		.4byte	.LASF22
 1121 024f 01       		.byte	0x1
 1122 0250 1D       		.byte	0x1d
 1123 0251 06020000 		.4byte	0x206
 1124 0255 05       		.byte	0x5
 1125 0256 03       		.byte	0x3
 1126 0257 04180000 		.4byte	proc4Stack
 1127 025b 0A       		.uleb128 0xa
 1128 025c 26000000 		.4byte	.LASF23
 1129 0260 01       		.byte	0x1
 1130 0261 1E       		.byte	0x1e
 1131 0262 06020000 		.4byte	0x206
 1132 0266 05       		.byte	0x5
 1133 0267 03       		.byte	0x3
 1134 0268 04200000 		.4byte	proc5Stack
 1135 026c 13       		.uleb128 0x13
 1136 026d 7D020000 		.4byte	0x27d
 1137 0271 25000000 		.4byte	0x25
 1138 0275 14       		.uleb128 0x14
 1139 0276 65000000 		.4byte	0x65
 1140 027a 8F01     		.2byte	0x18f
 1141 027c 00       		.byte	0x0
 1142 027d 0A       		.uleb128 0xa
 1143 027e 0C000000 		.4byte	.LASF24
 1144 0282 01       		.byte	0x1
 1145 0283 1F       		.byte	0x1f
 1146 0284 6C020000 		.4byte	0x26c
 1147 0288 05       		.byte	0x5
 1148 0289 03       		.byte	0x3
 1149 028a 04280000 		.4byte	initStack
 1150 028e 0A       		.uleb128 0xa
 1151 028f 21000000 		.4byte	.LASF25
 1152 0293 01       		.byte	0x1
 1153 0294 20       		.byte	0x20
 1154 0295 25000000 		.4byte	0x25
 1155 0299 05       		.byte	0x5
 1156 029a 03       		.byte	0x3
 1157 029b 94290000 		.4byte	pid1
 1158 029f 0A       		.uleb128 0xa
 1159 02a0 ED000000 		.4byte	.LASF26
 1160 02a4 01       		.byte	0x1
 1161 02a5 21       		.byte	0x21
 1162 02a6 25000000 		.4byte	0x25
 1163 02aa 05       		.byte	0x5
 1164 02ab 03       		.byte	0x3
 1165 02ac 95290000 		.4byte	pid2
 1166 02b0 0A       		.uleb128 0xa
 1167 02b1 4E000000 		.4byte	.LASF27
 1168 02b5 01       		.byte	0x1
ARM GAS  /cygdrive/c/DOCUME~1/mkwapisz/LOCALS~1/Temp/cc2WPCuc.s 			page 28


 1169 02b6 22       		.byte	0x22
 1170 02b7 25000000 		.4byte	0x25
 1171 02bb 05       		.byte	0x5
 1172 02bc 03       		.byte	0x3
 1173 02bd 96290000 		.4byte	pid3
 1174 02c1 0A       		.uleb128 0xa
 1175 02c2 29010000 		.4byte	.LASF28
 1176 02c6 01       		.byte	0x1
 1177 02c7 23       		.byte	0x23
 1178 02c8 25000000 		.4byte	0x25
 1179 02cc 05       		.byte	0x5
 1180 02cd 03       		.byte	0x3
 1181 02ce 97290000 		.4byte	pid4
 1182 02d2 0A       		.uleb128 0xa
 1183 02d3 45010000 		.4byte	.LASF29
 1184 02d7 01       		.byte	0x1
 1185 02d8 24       		.byte	0x24
 1186 02d9 25000000 		.4byte	0x25
 1187 02dd 05       		.byte	0x5
 1188 02de 03       		.byte	0x3
 1189 02df 98290000 		.4byte	pid5
 1190 02e3 15       		.uleb128 0x15
 1191 02e4 C2000000 		.4byte	.LASF30
 1192 02e8 01       		.byte	0x1
 1193 02e9 26       		.byte	0x26
 1194 02ea 5E000000 		.4byte	0x5e
 1195 02ee 01       		.byte	0x1
 1196 02ef 05       		.byte	0x5
 1197 02f0 03       		.byte	0x3
 1198 02f1 00000000 		.4byte	timerCnt
 1199 02f5 00       		.byte	0x0
 1200              		.section	.debug_abbrev
 1201 0000 01       		.uleb128 0x1
 1202 0001 11       		.uleb128 0x11
 1203 0002 01       		.byte	0x1
 1204 0003 10       		.uleb128 0x10
 1205 0004 06       		.uleb128 0x6
 1206 0005 12       		.uleb128 0x12
 1207 0006 01       		.uleb128 0x1
 1208 0007 11       		.uleb128 0x11
 1209 0008 01       		.uleb128 0x1
 1210 0009 25       		.uleb128 0x25
 1211 000a 0E       		.uleb128 0xe
 1212 000b 13       		.uleb128 0x13
 1213 000c 0B       		.uleb128 0xb
 1214 000d 03       		.uleb128 0x3
 1215 000e 0E       		.uleb128 0xe
 1216 000f 1B       		.uleb128 0x1b
 1217 0010 0E       		.uleb128 0xe
 1218 0011 00       		.byte	0x0
 1219 0012 00       		.byte	0x0
 1220 0013 02       		.uleb128 0x2
 1221 0014 16       		.uleb128 0x16
 1222 0015 00       		.byte	0x0
 1223 0016 03       		.uleb128 0x3
 1224 0017 08       		.uleb128 0x8
 1225 0018 3A       		.uleb128 0x3a
ARM GAS  /cygdrive/c/DOCUME~1/mkwapisz/LOCALS~1/Temp/cc2WPCuc.s 			page 29


 1226 0019 0B       		.uleb128 0xb
 1227 001a 3B       		.uleb128 0x3b
 1228 001b 0B       		.uleb128 0xb
 1229 001c 49       		.uleb128 0x49
 1230 001d 13       		.uleb128 0x13
 1231 001e 00       		.byte	0x0
 1232 001f 00       		.byte	0x0
 1233 0020 03       		.uleb128 0x3
 1234 0021 24       		.uleb128 0x24
 1235 0022 00       		.byte	0x0
 1236 0023 03       		.uleb128 0x3
 1237 0024 0E       		.uleb128 0xe
 1238 0025 0B       		.uleb128 0xb
 1239 0026 0B       		.uleb128 0xb
 1240 0027 3E       		.uleb128 0x3e
 1241 0028 0B       		.uleb128 0xb
 1242 0029 00       		.byte	0x0
 1243 002a 00       		.byte	0x0
 1244 002b 04       		.uleb128 0x4
 1245 002c 16       		.uleb128 0x16
 1246 002d 00       		.byte	0x0
 1247 002e 03       		.uleb128 0x3
 1248 002f 0E       		.uleb128 0xe
 1249 0030 3A       		.uleb128 0x3a
 1250 0031 0B       		.uleb128 0xb
 1251 0032 3B       		.uleb128 0x3b
 1252 0033 0B       		.uleb128 0xb
 1253 0034 49       		.uleb128 0x49
 1254 0035 13       		.uleb128 0x13
 1255 0036 00       		.byte	0x0
 1256 0037 00       		.byte	0x0
 1257 0038 05       		.uleb128 0x5
 1258 0039 24       		.uleb128 0x24
 1259 003a 00       		.byte	0x0
 1260 003b 03       		.uleb128 0x3
 1261 003c 08       		.uleb128 0x8
 1262 003d 0B       		.uleb128 0xb
 1263 003e 0B       		.uleb128 0xb
 1264 003f 3E       		.uleb128 0x3e
 1265 0040 0B       		.uleb128 0xb
 1266 0041 00       		.byte	0x0
 1267 0042 00       		.byte	0x0
 1268 0043 06       		.uleb128 0x6
 1269 0044 0F       		.uleb128 0xf
 1270 0045 00       		.byte	0x0
 1271 0046 0B       		.uleb128 0xb
 1272 0047 0B       		.uleb128 0xb
 1273 0048 00       		.byte	0x0
 1274 0049 00       		.byte	0x0
 1275 004a 07       		.uleb128 0x7
 1276 004b 2E       		.uleb128 0x2e
 1277 004c 01       		.byte	0x1
 1278 004d 01       		.uleb128 0x1
 1279 004e 13       		.uleb128 0x13
 1280 004f 3F       		.uleb128 0x3f
 1281 0050 0C       		.uleb128 0xc
 1282 0051 03       		.uleb128 0x3
ARM GAS  /cygdrive/c/DOCUME~1/mkwapisz/LOCALS~1/Temp/cc2WPCuc.s 			page 30


 1283 0052 0E       		.uleb128 0xe
 1284 0053 3A       		.uleb128 0x3a
 1285 0054 0B       		.uleb128 0xb
 1286 0055 3B       		.uleb128 0x3b
 1287 0056 05       		.uleb128 0x5
 1288 0057 27       		.uleb128 0x27
 1289 0058 0C       		.uleb128 0xc
 1290 0059 11       		.uleb128 0x11
 1291 005a 01       		.uleb128 0x1
 1292 005b 12       		.uleb128 0x12
 1293 005c 01       		.uleb128 0x1
 1294 005d 40       		.uleb128 0x40
 1295 005e 0A       		.uleb128 0xa
 1296 005f 00       		.byte	0x0
 1297 0060 00       		.byte	0x0
 1298 0061 08       		.uleb128 0x8
 1299 0062 05       		.uleb128 0x5
 1300 0063 00       		.byte	0x0
 1301 0064 03       		.uleb128 0x3
 1302 0065 0E       		.uleb128 0xe
 1303 0066 3A       		.uleb128 0x3a
 1304 0067 0B       		.uleb128 0xb
 1305 0068 3B       		.uleb128 0x3b
 1306 0069 05       		.uleb128 0x5
 1307 006a 49       		.uleb128 0x49
 1308 006b 13       		.uleb128 0x13
 1309 006c 02       		.uleb128 0x2
 1310 006d 0A       		.uleb128 0xa
 1311 006e 00       		.byte	0x0
 1312 006f 00       		.byte	0x0
 1313 0070 09       		.uleb128 0x9
 1314 0071 2E       		.uleb128 0x2e
 1315 0072 01       		.byte	0x1
 1316 0073 01       		.uleb128 0x1
 1317 0074 13       		.uleb128 0x13
 1318 0075 3F       		.uleb128 0x3f
 1319 0076 0C       		.uleb128 0xc
 1320 0077 03       		.uleb128 0x3
 1321 0078 0E       		.uleb128 0xe
 1322 0079 3A       		.uleb128 0x3a
 1323 007a 0B       		.uleb128 0xb
 1324 007b 3B       		.uleb128 0x3b
 1325 007c 0B       		.uleb128 0xb
 1326 007d 27       		.uleb128 0x27
 1327 007e 0C       		.uleb128 0xc
 1328 007f 49       		.uleb128 0x49
 1329 0080 13       		.uleb128 0x13
 1330 0081 11       		.uleb128 0x11
 1331 0082 01       		.uleb128 0x1
 1332 0083 12       		.uleb128 0x12
 1333 0084 01       		.uleb128 0x1
 1334 0085 40       		.uleb128 0x40
 1335 0086 06       		.uleb128 0x6
 1336 0087 00       		.byte	0x0
 1337 0088 00       		.byte	0x0
 1338 0089 0A       		.uleb128 0xa
 1339 008a 34       		.uleb128 0x34
ARM GAS  /cygdrive/c/DOCUME~1/mkwapisz/LOCALS~1/Temp/cc2WPCuc.s 			page 31


 1340 008b 00       		.byte	0x0
 1341 008c 03       		.uleb128 0x3
 1342 008d 0E       		.uleb128 0xe
 1343 008e 3A       		.uleb128 0x3a
 1344 008f 0B       		.uleb128 0xb
 1345 0090 3B       		.uleb128 0x3b
 1346 0091 0B       		.uleb128 0xb
 1347 0092 49       		.uleb128 0x49
 1348 0093 13       		.uleb128 0x13
 1349 0094 02       		.uleb128 0x2
 1350 0095 0A       		.uleb128 0xa
 1351 0096 00       		.byte	0x0
 1352 0097 00       		.byte	0x0
 1353 0098 0B       		.uleb128 0xb
 1354 0099 34       		.uleb128 0x34
 1355 009a 00       		.byte	0x0
 1356 009b 03       		.uleb128 0x3
 1357 009c 08       		.uleb128 0x8
 1358 009d 3A       		.uleb128 0x3a
 1359 009e 0B       		.uleb128 0xb
 1360 009f 3B       		.uleb128 0x3b
 1361 00a0 0B       		.uleb128 0xb
 1362 00a1 49       		.uleb128 0x49
 1363 00a2 13       		.uleb128 0x13
 1364 00a3 02       		.uleb128 0x2
 1365 00a4 0A       		.uleb128 0xa
 1366 00a5 00       		.byte	0x0
 1367 00a6 00       		.byte	0x0
 1368 00a7 0C       		.uleb128 0xc
 1369 00a8 2E       		.uleb128 0x2e
 1370 00a9 01       		.byte	0x1
 1371 00aa 01       		.uleb128 0x1
 1372 00ab 13       		.uleb128 0x13
 1373 00ac 03       		.uleb128 0x3
 1374 00ad 0E       		.uleb128 0xe
 1375 00ae 3A       		.uleb128 0x3a
 1376 00af 0B       		.uleb128 0xb
 1377 00b0 3B       		.uleb128 0x3b
 1378 00b1 05       		.uleb128 0x5
 1379 00b2 27       		.uleb128 0x27
 1380 00b3 0C       		.uleb128 0xc
 1381 00b4 11       		.uleb128 0x11
 1382 00b5 01       		.uleb128 0x1
 1383 00b6 12       		.uleb128 0x12
 1384 00b7 01       		.uleb128 0x1
 1385 00b8 40       		.uleb128 0x40
 1386 00b9 06       		.uleb128 0x6
 1387 00ba 00       		.byte	0x0
 1388 00bb 00       		.byte	0x0
 1389 00bc 0D       		.uleb128 0xd
 1390 00bd 05       		.uleb128 0x5
 1391 00be 00       		.byte	0x0
 1392 00bf 03       		.uleb128 0x3
 1393 00c0 08       		.uleb128 0x8
 1394 00c1 3A       		.uleb128 0x3a
 1395 00c2 0B       		.uleb128 0xb
 1396 00c3 3B       		.uleb128 0x3b
ARM GAS  /cygdrive/c/DOCUME~1/mkwapisz/LOCALS~1/Temp/cc2WPCuc.s 			page 32


 1397 00c4 05       		.uleb128 0x5
 1398 00c5 49       		.uleb128 0x49
 1399 00c6 13       		.uleb128 0x13
 1400 00c7 02       		.uleb128 0x2
 1401 00c8 06       		.uleb128 0x6
 1402 00c9 00       		.byte	0x0
 1403 00ca 00       		.byte	0x0
 1404 00cb 0E       		.uleb128 0xe
 1405 00cc 34       		.uleb128 0x34
 1406 00cd 00       		.byte	0x0
 1407 00ce 03       		.uleb128 0x3
 1408 00cf 0E       		.uleb128 0xe
 1409 00d0 3A       		.uleb128 0x3a
 1410 00d1 0B       		.uleb128 0xb
 1411 00d2 3B       		.uleb128 0x3b
 1412 00d3 05       		.uleb128 0x5
 1413 00d4 49       		.uleb128 0x49
 1414 00d5 13       		.uleb128 0x13
 1415 00d6 02       		.uleb128 0x2
 1416 00d7 0A       		.uleb128 0xa
 1417 00d8 00       		.byte	0x0
 1418 00d9 00       		.byte	0x0
 1419 00da 0F       		.uleb128 0xf
 1420 00db 2E       		.uleb128 0x2e
 1421 00dc 01       		.byte	0x1
 1422 00dd 01       		.uleb128 0x1
 1423 00de 13       		.uleb128 0x13
 1424 00df 03       		.uleb128 0x3
 1425 00e0 0E       		.uleb128 0xe
 1426 00e1 3A       		.uleb128 0x3a
 1427 00e2 0B       		.uleb128 0xb
 1428 00e3 3B       		.uleb128 0x3b
 1429 00e4 0B       		.uleb128 0xb
 1430 00e5 27       		.uleb128 0x27
 1431 00e6 0C       		.uleb128 0xc
 1432 00e7 11       		.uleb128 0x11
 1433 00e8 01       		.uleb128 0x1
 1434 00e9 12       		.uleb128 0x12
 1435 00ea 01       		.uleb128 0x1
 1436 00eb 40       		.uleb128 0x40
 1437 00ec 06       		.uleb128 0x6
 1438 00ed 00       		.byte	0x0
 1439 00ee 00       		.byte	0x0
 1440 00ef 10       		.uleb128 0x10
 1441 00f0 05       		.uleb128 0x5
 1442 00f1 00       		.byte	0x0
 1443 00f2 03       		.uleb128 0x3
 1444 00f3 08       		.uleb128 0x8
 1445 00f4 3A       		.uleb128 0x3a
 1446 00f5 0B       		.uleb128 0xb
 1447 00f6 3B       		.uleb128 0x3b
 1448 00f7 0B       		.uleb128 0xb
 1449 00f8 49       		.uleb128 0x49
 1450 00f9 13       		.uleb128 0x13
 1451 00fa 02       		.uleb128 0x2
 1452 00fb 06       		.uleb128 0x6
 1453 00fc 00       		.byte	0x0
ARM GAS  /cygdrive/c/DOCUME~1/mkwapisz/LOCALS~1/Temp/cc2WPCuc.s 			page 33


 1454 00fd 00       		.byte	0x0
 1455 00fe 11       		.uleb128 0x11
 1456 00ff 34       		.uleb128 0x34
 1457 0100 00       		.byte	0x0
 1458 0101 03       		.uleb128 0x3
 1459 0102 0E       		.uleb128 0xe
 1460 0103 3A       		.uleb128 0x3a
 1461 0104 0B       		.uleb128 0xb
 1462 0105 3B       		.uleb128 0x3b
 1463 0106 0B       		.uleb128 0xb
 1464 0107 49       		.uleb128 0x49
 1465 0108 13       		.uleb128 0x13
 1466 0109 00       		.byte	0x0
 1467 010a 00       		.byte	0x0
 1468 010b 12       		.uleb128 0x12
 1469 010c 34       		.uleb128 0x34
 1470 010d 00       		.byte	0x0
 1471 010e 03       		.uleb128 0x3
 1472 010f 0E       		.uleb128 0xe
 1473 0110 3A       		.uleb128 0x3a
 1474 0111 0B       		.uleb128 0xb
 1475 0112 3B       		.uleb128 0x3b
 1476 0113 0B       		.uleb128 0xb
 1477 0114 49       		.uleb128 0x49
 1478 0115 13       		.uleb128 0x13
 1479 0116 02       		.uleb128 0x2
 1480 0117 06       		.uleb128 0x6
 1481 0118 00       		.byte	0x0
 1482 0119 00       		.byte	0x0
 1483 011a 13       		.uleb128 0x13
 1484 011b 01       		.uleb128 0x1
 1485 011c 01       		.byte	0x1
 1486 011d 01       		.uleb128 0x1
 1487 011e 13       		.uleb128 0x13
 1488 011f 49       		.uleb128 0x49
 1489 0120 13       		.uleb128 0x13
 1490 0121 00       		.byte	0x0
 1491 0122 00       		.byte	0x0
 1492 0123 14       		.uleb128 0x14
 1493 0124 21       		.uleb128 0x21
 1494 0125 00       		.byte	0x0
 1495 0126 49       		.uleb128 0x49
 1496 0127 13       		.uleb128 0x13
 1497 0128 2F       		.uleb128 0x2f
 1498 0129 05       		.uleb128 0x5
 1499 012a 00       		.byte	0x0
 1500 012b 00       		.byte	0x0
 1501 012c 15       		.uleb128 0x15
 1502 012d 34       		.uleb128 0x34
 1503 012e 00       		.byte	0x0
 1504 012f 03       		.uleb128 0x3
 1505 0130 0E       		.uleb128 0xe
 1506 0131 3A       		.uleb128 0x3a
 1507 0132 0B       		.uleb128 0xb
 1508 0133 3B       		.uleb128 0x3b
 1509 0134 0B       		.uleb128 0xb
 1510 0135 49       		.uleb128 0x49
ARM GAS  /cygdrive/c/DOCUME~1/mkwapisz/LOCALS~1/Temp/cc2WPCuc.s 			page 34


 1511 0136 13       		.uleb128 0x13
 1512 0137 3F       		.uleb128 0x3f
 1513 0138 0C       		.uleb128 0xc
 1514 0139 02       		.uleb128 0x2
 1515 013a 0A       		.uleb128 0xa
 1516 013b 00       		.byte	0x0
 1517 013c 00       		.byte	0x0
 1518 013d 00       		.byte	0x0
 1519              		.section	.debug_pubnames,"",%progbits
 1520 0000 30000000 		.4byte	0x30
 1521 0004 0200     		.2byte	0x2
 1522 0006 00000000 		.4byte	.Ldebug_info0
 1523 000a F6020000 		.4byte	0x2f6
 1524 000e 6E000000 		.4byte	0x6e
 1525 0012 61707054 		.ascii	"appTick\000"
 1525      69636B00 
 1526 001a 95000000 		.4byte	0x95
 1527 001e 6D61696E 		.ascii	"main\000"
 1527      00
 1528 0023 E3020000 		.4byte	0x2e3
 1529 0027 74696D65 		.ascii	"timerCnt\000"
 1529      72436E74 
 1529      00
 1530 0030 00000000 		.4byte	0x0
 1531              		.section	.debug_aranges,"",%progbits
 1532 0000 1C000000 		.4byte	0x1c
 1533 0004 0200     		.2byte	0x2
 1534 0006 00000000 		.4byte	.Ldebug_info0
 1535 000a 04       		.byte	0x4
 1536 000b 00       		.byte	0x0
 1537 000c 0000     		.2byte	0x0
 1538 000e 0000     		.2byte	0x0
 1539 0010 00000000 		.4byte	.Ltext0
 1540 0014 BA020000 		.4byte	.Letext0-.Ltext0
 1541 0018 00000000 		.4byte	0x0
 1542 001c 00000000 		.4byte	0x0
 1543              		.section	.debug_str,"MS",%progbits,1
 1544              	.LASF16:
 1545 0000 70726F63 		.ascii	"proc4\000"
 1545      3400
 1546              	.LASF15:
 1547 0006 70726F63 		.ascii	"proc5\000"
 1547      3500
 1548              	.LASF24:
 1549 000c 696E6974 		.ascii	"initStack\000"
 1549      53746163 
 1549      6B00
 1550              	.LASF20:
 1551 0016 70726F63 		.ascii	"proc2Stack\000"
 1551      32537461 
 1551      636B00
 1552              	.LASF25:
 1553 0021 70696431 		.ascii	"pid1\000"
 1553      00
 1554              	.LASF23:
 1555 0026 70726F63 		.ascii	"proc5Stack\000"
 1555      35537461 
ARM GAS  /cygdrive/c/DOCUME~1/mkwapisz/LOCALS~1/Temp/cc2WPCuc.s 			page 35


 1555      636B00
 1556              	.LASF13:
 1557 0031 63656E74 		.ascii	"centerReleased\000"
 1557      65725265 
 1557      6C656173 
 1557      656400
 1558              	.LASF0:
 1559 0040 756E7369 		.ascii	"unsigned char\000"
 1559      676E6564 
 1559      20636861 
 1559      7200
 1560              	.LASF27:
 1561 004e 70696433 		.ascii	"pid3\000"
 1561      00
 1562              	.LASF21:
 1563 0053 70726F63 		.ascii	"proc3Stack\000"
 1563      33537461 
 1563      636B00
 1564              	.LASF6:
 1565 005e 6C6F6E67 		.ascii	"long unsigned int\000"
 1565      20756E73 
 1565      69676E65 
 1565      6420696E 
 1565      7400
 1566              	.LASF1:
 1567 0070 73686F72 		.ascii	"short unsigned int\000"
 1567      7420756E 
 1567      7369676E 
 1567      65642069 
 1567      6E7400
 1568              	.LASF14:
 1569 0083 70617474 		.ascii	"pattern\000"
 1569      65726E00 
 1570              	.LASF32:
 1571 008b 6D61696E 		.ascii	"main.c\000"
 1571      2E6300
 1572              	.LASF12:
 1573 0092 70726F63 		.ascii	"proc1\000"
 1573      3100
 1574              	.LASF18:
 1575 0098 70726F63 		.ascii	"proc2\000"
 1575      3200
 1576              	.LASF17:
 1577 009e 70726F63 		.ascii	"proc3\000"
 1577      3300
 1578              	.LASF8:
 1579 00a4 6D61696E 		.ascii	"main\000"
 1579      00
 1580              	.LASF3:
 1581 00a9 756E7369 		.ascii	"unsigned int\000"
 1581      676E6564 
 1581      20696E74 
 1581      00
 1582              	.LASF10:
 1583 00b6 656C6170 		.ascii	"elapsedTime\000"
 1583      73656454 
 1583      696D6500 
ARM GAS  /cygdrive/c/DOCUME~1/mkwapisz/LOCALS~1/Temp/cc2WPCuc.s 			page 36


 1584              	.LASF30:
 1585 00c2 74696D65 		.ascii	"timerCnt\000"
 1585      72436E74 
 1585      00
 1586              	.LASF11:
 1587 00cb 696E6974 		.ascii	"initProc\000"
 1587      50726F63 
 1587      00
 1588              	.LASF31:
 1589 00d4 474E5520 		.ascii	"GNU C 4.1.1\000"
 1589      4320342E 
 1589      312E3100 
 1590              	.LASF2:
 1591 00e0 74553332 		.ascii	"tU32\000"
 1591      00
 1592              	.LASF7:
 1593 00e5 61707054 		.ascii	"appTick\000"
 1593      69636B00 
 1594              	.LASF26:
 1595 00ed 70696432 		.ascii	"pid2\000"
 1595      00
 1596              	.LASF5:
 1597 00f2 73686F72 		.ascii	"short int\000"
 1597      7420696E 
 1597      7400
 1598              	.LASF9:
 1599 00fc 6572726F 		.ascii	"error\000"
 1599      7200
 1600              	.LASF33:
 1601 0102 2F637967 		.ascii	"/cygdrive/c/Embedded/eclipse/Demo/2138\000"
 1601      64726976 
 1601      652F632F 
 1601      456D6265 
 1601      64646564 
 1602              	.LASF28:
 1603 0129 70696434 		.ascii	"pid4\000"
 1603      00
 1604              	.LASF22:
 1605 012e 70726F63 		.ascii	"proc4Stack\000"
 1605      34537461 
 1605      636B00
 1606              	.LASF4:
 1607 0139 7369676E 		.ascii	"signed char\000"
 1607      65642063 
 1607      68617200 
 1608              	.LASF29:
 1609 0145 70696435 		.ascii	"pid5\000"
 1609      00
 1610              	.LASF19:
 1611 014a 70726F63 		.ascii	"proc1Stack\000"
 1611      31537461 
 1611      636B00
 1612              		.ident	"GCC: (GNU) 4.1.1"
ARM GAS  /cygdrive/c/DOCUME~1/mkwapisz/LOCALS~1/Temp/cc2WPCuc.s 			page 37


DEFINED SYMBOLS
                            *ABS*:00000000 main.c
/cygdrive/c/DOCUME~1/mkwapisz/LOCALS~1/Temp/cc2WPCuc.s:1      .text:00000000 $t
/cygdrive/c/DOCUME~1/mkwapisz/LOCALS~1/Temp/cc2WPCuc.s:16     .text:00000000 appTick
/cygdrive/c/DOCUME~1/mkwapisz/LOCALS~1/Temp/cc2WPCuc.s:32     .text:00000004 main
/cygdrive/c/DOCUME~1/mkwapisz/LOCALS~1/Temp/cc2WPCuc.s:90     .text:00000054 $d
/cygdrive/c/DOCUME~1/mkwapisz/LOCALS~1/Temp/cc2WPCuc.s:527    .bss:00000000 timerCnt
/cygdrive/c/DOCUME~1/mkwapisz/LOCALS~1/Temp/cc2WPCuc.s:101    .text:00000068 initProc
/cygdrive/c/DOCUME~1/mkwapisz/LOCALS~1/Temp/cc2WPCuc.s:539    .bss:00002804 initStack
/cygdrive/c/DOCUME~1/mkwapisz/LOCALS~1/Temp/cc2WPCuc.s:98     .text:00000068 $t
/cygdrive/c/DOCUME~1/mkwapisz/LOCALS~1/Temp/cc2WPCuc.s:142    .text:000000a4 $d
/cygdrive/c/DOCUME~1/mkwapisz/LOCALS~1/Temp/cc2WPCuc.s:541    .bss:00002994 pid1
/cygdrive/c/DOCUME~1/mkwapisz/LOCALS~1/Temp/cc2WPCuc.s:185    .text:000000b0 proc1
/cygdrive/c/DOCUME~1/mkwapisz/LOCALS~1/Temp/cc2WPCuc.s:529    .bss:00000004 proc1Stack
/cygdrive/c/DOCUME~1/mkwapisz/LOCALS~1/Temp/cc2WPCuc.s:182    .text:000000b0 $t
/cygdrive/c/DOCUME~1/mkwapisz/LOCALS~1/Temp/cc2WPCuc.s:419    .text:00000224 $d
/cygdrive/c/DOCUME~1/mkwapisz/LOCALS~1/Temp/cc2WPCuc.s:543    .bss:00002995 pid2
/cygdrive/c/DOCUME~1/mkwapisz/LOCALS~1/Temp/cc2WPCuc.s:507    .text:000002b0 proc2
/cygdrive/c/DOCUME~1/mkwapisz/LOCALS~1/Temp/cc2WPCuc.s:531    .bss:00000804 proc2Stack
/cygdrive/c/DOCUME~1/mkwapisz/LOCALS~1/Temp/cc2WPCuc.s:545    .bss:00002996 pid3
/cygdrive/c/DOCUME~1/mkwapisz/LOCALS~1/Temp/cc2WPCuc.s:488    .text:000002a4 proc3
/cygdrive/c/DOCUME~1/mkwapisz/LOCALS~1/Temp/cc2WPCuc.s:533    .bss:00001004 proc3Stack
/cygdrive/c/DOCUME~1/mkwapisz/LOCALS~1/Temp/cc2WPCuc.s:547    .bss:00002997 pid4
/cygdrive/c/DOCUME~1/mkwapisz/LOCALS~1/Temp/cc2WPCuc.s:471    .text:0000029c proc4
/cygdrive/c/DOCUME~1/mkwapisz/LOCALS~1/Temp/cc2WPCuc.s:535    .bss:00001804 proc4Stack
/cygdrive/c/DOCUME~1/mkwapisz/LOCALS~1/Temp/cc2WPCuc.s:549    .bss:00002998 pid5
/cygdrive/c/DOCUME~1/mkwapisz/LOCALS~1/Temp/cc2WPCuc.s:452    .text:00000290 proc5
/cygdrive/c/DOCUME~1/mkwapisz/LOCALS~1/Temp/cc2WPCuc.s:537    .bss:00002004 proc5Stack
/cygdrive/c/DOCUME~1/mkwapisz/LOCALS~1/Temp/cc2WPCuc.s:449    .text:00000290 $t
                             .bss:00000000 $d

UNDEFINED SYMBOLS
osInit
osCreateProcess
osStartProcess
osStart
eaInit
osDeleteProcess
simplePrintf
osSleep
testI2C
timer
testRGB
testLcd
testLedMatrix
