ARM GAS  /cygdrive/c/DOCUME~1/mkwapisz/LOCALS~1/Temp/ccrRMyZd.s 			page 1


   1              		.code	16
   2              		.file	"testLcd.c"
   3              		.section	.debug_abbrev,"",%progbits
   4              	.Ldebug_abbrev0:
   5              		.section	.debug_info,"",%progbits
   6              	.Ldebug_info0:
   7              		.section	.debug_line,"",%progbits
   8              	.Ldebug_line0:
   9 0000 DE000000 		.text
   9      02005400 
   9      00000201 
   9      FB0E0D00 
   9      01010101 
  10              	.Ltext0:
  11              		.align	2
  12              		.code 16
  13              		.thumb_func
  14              		.type	delay37us, %function
  15              	delay37us:
  16              	.LFB3:
  17              		.file 1 "testLcd.c"
   1:testLcd.c     **** /******************************************************************************
   2:testLcd.c     ****  *
   3:testLcd.c     ****  * Copyright:
   4:testLcd.c     ****  *    (C) 2000 - 2005 Embedded Artists AB
   5:testLcd.c     ****  *
   6:testLcd.c     ****  *****************************************************************************/
   7:testLcd.c     **** 
   8:testLcd.c     **** 
   9:testLcd.c     **** #include "../pre_emptive_os/api/osapi.h"
  10:testLcd.c     **** #include "../pre_emptive_os/api/general.h"
  11:testLcd.c     **** #include <printf_P.h>
  12:testLcd.c     **** #include <lpc2xxx.h>
  13:testLcd.c     **** #include <consol.h>
  14:testLcd.c     **** 
  15:testLcd.c     **** #define LCD_DATA      0x00ff0000  //P1.16-P1.23
  16:testLcd.c     **** #define LCD_E         0x02000000  //P1.25
  17:testLcd.c     **** #define LCD_RW        0x00400000  //P0.22
  18:testLcd.c     **** #define LCD_RS        0x01000000  //P1.24
  19:testLcd.c     **** #define LCD_BACKLIGHT 0x40000000  //P0.30
  20:testLcd.c     **** 
  21:testLcd.c     **** extern int timerCnt;
  22:testLcd.c     **** 
  23:testLcd.c     **** /*****************************************************************************
  24:testLcd.c     ****  *
  25:testLcd.c     ****  * Description:
  26:testLcd.c     ****  *    xxx
  27:testLcd.c     ****  *
  28:testLcd.c     ****  ****************************************************************************/
  29:testLcd.c     **** static void
  30:testLcd.c     **** initLCD(void)
  31:testLcd.c     **** {
  32:testLcd.c     **** 	IODIR1 |= (LCD_DATA | LCD_E | LCD_RS);
  33:testLcd.c     **** 	IOCLR1  = (LCD_DATA | LCD_E | LCD_RS);
  34:testLcd.c     **** 
  35:testLcd.c     **** 	IODIR0 |= LCD_RW;
  36:testLcd.c     **** 	IOCLR0  = LCD_RW;
ARM GAS  /cygdrive/c/DOCUME~1/mkwapisz/LOCALS~1/Temp/ccrRMyZd.s 			page 2


  37:testLcd.c     **** 	
  38:testLcd.c     ****   IODIR0 |= LCD_BACKLIGHT;
  39:testLcd.c     ****   IOCLR0  = LCD_BACKLIGHT;
  40:testLcd.c     **** }
  41:testLcd.c     **** 
  42:testLcd.c     **** /*****************************************************************************
  43:testLcd.c     ****  *
  44:testLcd.c     ****  * Description:
  45:testLcd.c     ****  *    xxx
  46:testLcd.c     ****  *
  47:testLcd.c     ****  ****************************************************************************/
  48:testLcd.c     **** static void
  49:testLcd.c     **** delay37us(void)
  50:testLcd.c     **** {
  18              		.loc 1 50 0
  19 0000 81B0     		sub	sp, sp, #4
  20              	.LCFI0:
  51:testLcd.c     **** 	volatile tU32 i;
  52:testLcd.c     **** 
  53:testLcd.c     **** //Temp test for 140 uS delay
  54:testLcd.c     **** 	for(i=0; i<6*2500; i++)
  21              		.loc 1 54 0
  22 0002 0023     		mov	r3, #0
  23              		.loc 1 50 0
  24              		@ lr needed for prologue
  25 0004 02E0     		b	.L6
  26              	.LVL0:
  27              	.L3:
  55:testLcd.c     ****     asm volatile (" nop"); //delay 15 ns x 2500 = about 37 us delay
  28              		.loc 1 55 0
  29 0006 C046     		 nop
  30              		.loc 1 54 0
  31              		.code	16
  32 0008 009B     		ldr	r3, [sp]
  33 000a 0133     		add	r3, r3, #1
  34              	.L6:
  35 000c 0093     		str	r3, [sp]
  36 000e 009A     		ldr	r2, [sp]
  37 0010 024B     		ldr	r3, .L7
  38 0012 9A42     		cmp	r2, r3
  39 0014 F7D9     		bls	.L3
  56:testLcd.c     **** }
  40              		.loc 1 56 0
  41 0016 01B0     		add	sp, sp, #4
  42              		@ sp needed for prologue
  43 0018 7047     		bx	lr
  44              	.L8:
  45 001a 0000     		.align	2
  46              	.L7:
  47 001c 973A0000 		.word	14999
  48              	.LFE3:
  49              		.size	delay37us, .-delay37us
  50              		.align	2
  51              		.code 16
  52              		.thumb_func
  53              		.type	writeLCD, %function
  54              	writeLCD:
ARM GAS  /cygdrive/c/DOCUME~1/mkwapisz/LOCALS~1/Temp/ccrRMyZd.s 			page 3


  55              	.LFB4:
  57:testLcd.c     **** 
  58:testLcd.c     **** /*****************************************************************************
  59:testLcd.c     ****  *
  60:testLcd.c     ****  * Description:
  61:testLcd.c     ****  *    xxx
  62:testLcd.c     ****  *
  63:testLcd.c     ****  ****************************************************************************/
  64:testLcd.c     **** static void
  65:testLcd.c     **** writeLCD(tU8 reg, tU8 data)
  66:testLcd.c     **** {
  56              		.loc 1 66 0
  57              	.LVL1:
  58 0020 0906     		lsl	r1, r1, #24
  59              	.LVL2:
  60 0022 0006     		lsl	r0, r0, #24
  61              	.LVL3:
  62 0024 81B0     		sub	sp, sp, #4
  63              	.LCFI1:
  64              		@ lr needed for prologue
  65              		.loc 1 66 0
  66 0026 090E     		lsr	r1, r1, #24
  67              	.LVL4:
  67:testLcd.c     **** 	volatile tU8 i;
  68:testLcd.c     **** 
  69:testLcd.c     **** 	if (reg == 0)
  68              		.loc 1 69 0
  69 0028 0028     		cmp	r0, #0
  70 002a 03D1     		bne	.L10
  70:testLcd.c     **** 	  IOCLR1 = LCD_RS;
  71              		.loc 1 70 0
  72 002c 8023     		mov	r3, #128
  73 002e 1D4A     		ldr	r2, .L21
  74 0030 5B04     		lsl	r3, r3, #17
  75 0032 02E0     		b	.L20
  76              	.L10:
  71:testLcd.c     **** 	else
  72:testLcd.c     **** 	  IOSET1 = LCD_RS;
  77              		.loc 1 72 0
  78 0034 8023     		mov	r3, #128
  79 0036 1C4A     		ldr	r2, .L21+4
  80 0038 5B04     		lsl	r3, r3, #17
  81              	.L20:
  82 003a 1360     		str	r3, [r2]
  73:testLcd.c     **** 	  
  74:testLcd.c     ****   IOCLR0 = LCD_RW;
  83              		.loc 1 74 0
  84 003c 1B4A     		ldr	r2, .L21+8
  85 003e 8023     		mov	r3, #128
  86 0040 DB03     		lsl	r3, r3, #15
  87 0042 1360     		str	r3, [r2]
  75:testLcd.c     **** 	IOCLR1 = LCD_DATA;
  88              		.loc 1 75 0
  89 0044 174B     		ldr	r3, .L21
  90 0046 FF22     		mov	r2, #255
  91 0048 1204     		lsl	r2, r2, #16
  92 004a 1A60     		str	r2, [r3]
ARM GAS  /cygdrive/c/DOCUME~1/mkwapisz/LOCALS~1/Temp/ccrRMyZd.s 			page 4


  76:testLcd.c     **** 	IOSET1 = ((tU32)data << 16) & LCD_DATA;
  93              		.loc 1 76 0
  94 004c 0B04     		lsl	r3, r1, #16
  95 004e 1340     		and	r3, r3, r2
  96 0050 154A     		ldr	r2, .L21+4
  97 0052 1360     		str	r3, [r2]
  77:testLcd.c     **** //printf("\nwrite: %x", data);
  78:testLcd.c     **** 	
  79:testLcd.c     **** 	IOSET1 = LCD_E;
  98              		.loc 1 79 0
  99 0054 8023     		mov	r3, #128
 100 0056 9B04     		lsl	r3, r3, #18
 101 0058 1360     		str	r3, [r2]
  80:testLcd.c     **** //	osSleep(1);
  81:testLcd.c     **** 	for(i=0; i<16; i++)
 102              		.loc 1 81 0
 103 005a 6B46     		mov	r3, sp
 104 005c 0022     		mov	r2, #0
 105 005e 0333     		add	r3, r3, #3
 106 0060 1A70     		strb	r2, [r3]
 107              	.LVL5:
 108 0062 05E0     		b	.L13
 109              	.LVL6:
 110              	.L14:
  82:testLcd.c     ****     asm volatile (" nop"); //delay 15 ns x 16 = about 250 ns delay
 111              		.loc 1 82 0
 112 0064 C046     		 nop
 113              		.loc 1 81 0
 114              		.code	16
 115 0066 0B78     		ldrb	r3, [r1]
 116 0068 0133     		add	r3, r3, #1
 117              	.LVL7:
 118 006a 1B06     		lsl	r3, r3, #24
 119 006c 1B0E     		lsr	r3, r3, #24
 120 006e 0B70     		strb	r3, [r1]
 121              	.LVL8:
 122              	.L13:
 123 0070 6946     		mov	r1, sp
 124              	.LVL9:
 125 0072 0331     		add	r1, r1, #3
 126 0074 0B78     		ldrb	r3, [r1]
 127 0076 0F2B     		cmp	r3, #15
 128 0078 F4D9     		bls	.L14
 129              	.LVL10:
  83:testLcd.c     **** 	IOCLR1 = LCD_E;
 130              		.loc 1 83 0
 131 007a 8023     		mov	r3, #128
 132              	.LVL11:
 133 007c 094A     		ldr	r2, .L21
 134 007e 9B04     		lsl	r3, r3, #18
 135 0080 1360     		str	r3, [r2]
  84:testLcd.c     **** //	osSleep(1);
  85:testLcd.c     **** 	for(i=0; i<16; i++)
 136              		.loc 1 85 0
 137 0082 0023     		mov	r3, #0
 138 0084 0B70     		strb	r3, [r1]
 139 0086 05E0     		b	.L16
ARM GAS  /cygdrive/c/DOCUME~1/mkwapisz/LOCALS~1/Temp/ccrRMyZd.s 			page 5


 140              	.LVL12:
 141              	.L17:
  86:testLcd.c     ****     asm volatile (" nop"); //delay 15 ns x 16 = about 250 ns delay
 142              		.loc 1 86 0
 143 0088 C046     		 nop
 144              		.loc 1 85 0
 145              		.code	16
 146 008a 1378     		ldrb	r3, [r2]
 147 008c 0133     		add	r3, r3, #1
 148              	.LVL13:
 149 008e 1B06     		lsl	r3, r3, #24
 150 0090 1B0E     		lsr	r3, r3, #24
 151 0092 1370     		strb	r3, [r2]
 152              	.LVL14:
 153              	.L16:
 154 0094 6A46     		mov	r2, sp
 155 0096 0332     		add	r2, r2, #3
 156 0098 1378     		ldrb	r3, [r2]
 157 009a 0F2B     		cmp	r3, #15
 158 009c F4D9     		bls	.L17
 159              	.LVL15:
  87:testLcd.c     **** }
 160              		.loc 1 87 0
 161 009e 01B0     		add	sp, sp, #4
 162              		@ sp needed for prologue
 163 00a0 7047     		bx	lr
 164              	.L22:
 165 00a2 0000     		.align	2
 166              	.L21:
 167 00a4 1C8002E0 		.word	-536707044
 168 00a8 148002E0 		.word	-536707052
 169 00ac 0C8002E0 		.word	-536707060
 170              	.LFE4:
 171              		.size	writeLCD, .-writeLCD
 172              		.align	2
 173              		.global	writeString
 174              		.code 16
 175              		.thumb_func
 176              		.type	writeString, %function
 177              	writeString:
 178              	.LFB6:
  88:testLcd.c     **** 
  89:testLcd.c     **** /*****************************************************************************
  90:testLcd.c     ****  *
  91:testLcd.c     ****  * Description:
  92:testLcd.c     ****  *    xxx
  93:testLcd.c     ****  *
  94:testLcd.c     ****  ****************************************************************************/
  95:testLcd.c     **** static void
  96:testLcd.c     **** lcdBacklight(tU8 onOff)
  97:testLcd.c     **** {
  98:testLcd.c     **** 	if (onOff == TRUE)
  99:testLcd.c     **** 	  IOSET0 = LCD_BACKLIGHT;
 100:testLcd.c     **** 	else
 101:testLcd.c     **** 	  IOCLR0 = LCD_BACKLIGHT;
 102:testLcd.c     **** }
 103:testLcd.c     **** 
ARM GAS  /cygdrive/c/DOCUME~1/mkwapisz/LOCALS~1/Temp/ccrRMyZd.s 			page 6


 104:testLcd.c     **** void writeString(char *caption)
 105:testLcd.c     **** {
 179              		.loc 1 105 0
 180 00b0 10B5     		push	{r4, lr}
 181              	.LCFI2:
 182              	.LVL16:
 183              		.loc 1 105 0
 184 00b2 041C     		mov	r4, r0
 185 00b4 04E0     		b	.L24
 186              	.L25:
 106:testLcd.c     **** 	int i = 0;
 107:testLcd.c     **** 
 108:testLcd.c     **** 	for (i = 0; caption[i] != '\0'; i += 1)
 109:testLcd.c     **** 	{
 110:testLcd.c     **** 
 111:testLcd.c     **** 		writeLCD(1, caption[i]);
 187              		.loc 1 111 0
 188 00b6 0120     		mov	r0, #1
 189              	.LVL17:
 190 00b8 FFF7B2FF 		bl	writeLCD
 112:testLcd.c     **** 		delay37us();
 191              		.loc 1 112 0
 192 00bc FFF7A0FF 		bl	delay37us
 193              	.LVL18:
 194              	.L24:
 195              		.loc 1 108 0
 196 00c0 2178     		ldrb	r1, [r4]
 197 00c2 0134     		add	r4, r4, #1
 198 00c4 0029     		cmp	r1, #0
 199 00c6 F6D1     		bne	.L25
 113:testLcd.c     **** 	}
 114:testLcd.c     **** }
 200              		.loc 1 114 0
 201              		@ sp needed for prologue
 202 00c8 10BC     		pop	{r4}
 203 00ca 01BC     		pop	{r0}
 204 00cc 0047     		bx	r0
 205              	.LFE6:
 206              		.size	writeString, .-writeString
 207              		.global	__modsi3
 208              		.global	__divsi3
 209 00ce 0000     		.align	2
 210              		.global	writeInt
 211              		.code 16
 212              		.thumb_func
 213              		.type	writeInt, %function
 214              	writeInt:
 215              	.LFB7:
 115:testLcd.c     **** 
 116:testLcd.c     **** void writeInt(int number)
 117:testLcd.c     **** {
 216              		.loc 1 117 0
 217 00d0 F0B5     		push	{r4, r5, r6, r7, lr}
 218              	.LCFI3:
 219              	.LVL19:
 220 00d2 8CB0     		sub	sp, sp, #48
 221              	.LCFI4:
ARM GAS  /cygdrive/c/DOCUME~1/mkwapisz/LOCALS~1/Temp/ccrRMyZd.s 			page 7


 118:testLcd.c     **** 	char caption[20], tmp[20];
 119:testLcd.c     **** 
 120:testLcd.c     **** 	int divisor = 10, counter = 0;
 121:testLcd.c     **** 	int prevModulo = -1;
 122:testLcd.c     **** 	int modulo = number % divisor;
 222              		.loc 1 122 0
 223 00d4 0A21     		mov	r1, #10
 224              		.loc 1 117 0
 225 00d6 0090     		str	r0, [sp]
 226              		.loc 1 122 0
 227 00d8 FFF7FEFF 		bl	__modsi3
 228              	.LVL20:
 229              	.LVL21:
 123:testLcd.c     **** 	tmp[counter] = (char)(modulo + '0');
 230              		.loc 1 123 0
 231 00dc 021C     		mov	r2, r0
 232 00de 3032     		add	r2, r2, #48
 233 00e0 02AB     		add	r3, sp, #8
 234 00e2 1A70     		strb	r2, [r3]
 235 00e4 0123     		mov	r3, #1
 236              	.LVL22:
 237 00e6 0022     		mov	r2, #0
 238              	.LVL23:
 239              		.loc 1 122 0
 240 00e8 061C     		mov	r6, r0
 241              	.LVL24:
 242              		.loc 1 123 0
 243 00ea 0A27     		mov	r7, #10
 244              	.LVL25:
 245 00ec 5B42     		neg	r3, r3
 246 00ee 0192     		str	r2, [sp, #4]
 247              	.LVL26:
 248 00f0 22E0     		b	.L29
 249              	.LVL27:
 250              	.L30:
 251              	.LBB2:
 124:testLcd.c     **** 
 125:testLcd.c     **** 	while (prevModulo != modulo)
 126:testLcd.c     **** 	{
 127:testLcd.c     **** 		counter += 1;
 252              		.loc 1 127 0
 253 00f2 019B     		ldr	r3, [sp, #4]
 254              	.LVL28:
 255 00f4 0133     		add	r3, r3, #1
 256 00f6 0193     		str	r3, [sp, #4]
 128:testLcd.c     **** 		prevModulo = modulo;
 129:testLcd.c     **** 		divisor *= 10;
 257              		.loc 1 129 0
 258 00f8 BB00     		lsl	r3, r7, #2
 259 00fa DB19     		add	r3, r3, r7
 260 00fc 5F00     		lsl	r7, r3, #1
 130:testLcd.c     **** 		modulo = number % divisor;
 261              		.loc 1 130 0
 262 00fe 0098     		ldr	r0, [sp]
 263 0100 391C     		mov	r1, r7
 264 0102 FFF7FEFF 		bl	__modsi3
 265 0106 0A25     		mov	r5, #10
ARM GAS  /cygdrive/c/DOCUME~1/mkwapisz/LOCALS~1/Temp/ccrRMyZd.s 			page 8


 266 0108 041C     		mov	r4, r0
 267 010a 07E0     		b	.L31
 268              	.L32:
 131:testLcd.c     **** 		int i = 0;
 132:testLcd.c     **** 		for (i = 10; i < divisor; i *= 10)
 133:testLcd.c     **** 		{
 134:testLcd.c     **** 			modulo -= modulo % i;
 269              		.loc 1 134 0
 270 010c 201C     		mov	r0, r4
 271 010e 291C     		mov	r1, r5
 272 0110 FFF7FEFF 		bl	__modsi3
 273              		.loc 1 132 0
 274 0114 AB00     		lsl	r3, r5, #2
 275 0116 5B19     		add	r3, r3, r5
 276              		.loc 1 134 0
 277 0118 241A     		sub	r4, r4, r0
 278              		.loc 1 132 0
 279 011a 5D00     		lsl	r5, r3, #1
 280              	.L31:
 281 011c BD42     		cmp	r5, r7
 282 011e F5DB     		blt	.L32
 135:testLcd.c     **** 		}
 136:testLcd.c     **** 
 137:testLcd.c     **** 		tmp[counter] = (char)((modulo * 10 / divisor) + '0');
 283              		.loc 1 137 0
 284 0120 A000     		lsl	r0, r4, #2
 285 0122 0019     		add	r0, r0, r4
 286 0124 4000     		lsl	r0, r0, #1
 287 0126 391C     		mov	r1, r7
 288 0128 FFF7FEFF 		bl	__divsi3
 289 012c 019A     		ldr	r2, [sp, #4]
 290 012e 02AB     		add	r3, sp, #8
 291 0130 3030     		add	r0, r0, #48
 292 0132 D054     		strb	r0, [r2, r3]
 293 0134 331C     		mov	r3, r6
 294              	.LVL29:
 295 0136 261C     		mov	r6, r4
 296              	.L29:
 297              	.LBE2:
 298              		.loc 1 125 0
 299 0138 B342     		cmp	r3, r6
 300 013a DAD1     		bne	.L30
 138:testLcd.c     **** 	}
 139:testLcd.c     **** 
 140:testLcd.c     **** 	tmp[counter - 1] = '\0';
 301              		.loc 1 140 0
 302 013c 019C     		ldr	r4, [sp, #4]
 303              	.LVL30:
 304 013e 02AB     		add	r3, sp, #8
 305              	.LVL31:
 306 0140 0022     		mov	r2, #0
 307 0142 013C     		sub	r4, r4, #1
 308 0144 1A55     		strb	r2, [r3, r4]
 141:testLcd.c     **** 
 142:testLcd.c     **** 	int i = 0;
 143:testLcd.c     **** 
 144:testLcd.c     **** 	for (i = counter - 2; i >= 0; i -= 1)
ARM GAS  /cygdrive/c/DOCUME~1/mkwapisz/LOCALS~1/Temp/ccrRMyZd.s 			page 9


 309              		.loc 1 144 0
 310 0146 0199     		ldr	r1, [sp, #4]
 311              	.LVL32:
 312 0148 07AA     		add	r2, sp, #28
 313 014a 0239     		sub	r1, r1, #2
 314 014c 5218     		add	r2, r2, r1
 315 014e 181C     		mov	r0, r3
 316 0150 04E0     		b	.L35
 317              	.L36:
 145:testLcd.c     **** 	{
 146:testLcd.c     **** 		caption[i] = tmp[counter - 2 - i];
 318              		.loc 1 146 0
 319 0152 0378     		ldrb	r3, [r0]
 320              		.loc 1 144 0
 321 0154 0139     		sub	r1, r1, #1
 322              		.loc 1 146 0
 323 0156 1370     		strb	r3, [r2]
 324              		.loc 1 144 0
 325 0158 0130     		add	r0, r0, #1
 326 015a 013A     		sub	r2, r2, #1
 327              	.L35:
 328 015c 0029     		cmp	r1, #0
 329 015e F8DA     		bge	.L36
 147:testLcd.c     **** 	}
 148:testLcd.c     **** 
 149:testLcd.c     **** 	caption[counter - 1] = '\0';
 330              		.loc 1 149 0
 331 0160 07A8     		add	r0, sp, #28
 332 0162 0023     		mov	r3, #0
 333 0164 0355     		strb	r3, [r0, r4]
 150:testLcd.c     **** 
 151:testLcd.c     **** 	writeString(caption);
 334              		.loc 1 151 0
 335 0166 FFF7FEFF 		bl	writeString
 336              	.LVL33:
 152:testLcd.c     **** }
 337              		.loc 1 152 0
 338 016a 0CB0     		add	sp, sp, #48
 339              		@ sp needed for prologue
 340              	.LVL34:
 341              	.LVL35:
 342              	.LVL36:
 343 016c F0BC     		pop	{r4, r5, r6, r7}
 344 016e 01BC     		pop	{r0}
 345 0170 0047     		bx	r0
 346              	.LFE7:
 347              		.size	writeInt, .-writeInt
 348 0172 0000     		.align	2
 349              		.global	writeNewLine
 350              		.code 16
 351              		.thumb_func
 352              		.type	writeNewLine, %function
 353              	writeNewLine:
 354              	.LFB8:
 153:testLcd.c     **** 
 154:testLcd.c     **** void writeNewLine()
 155:testLcd.c     **** {
ARM GAS  /cygdrive/c/DOCUME~1/mkwapisz/LOCALS~1/Temp/ccrRMyZd.s 			page 10


 355              		.loc 1 155 0
 356 0174 00B5     		push	{lr}
 357              	.LCFI5:
 156:testLcd.c     **** 	writeLCD(0, 0x80 | 0x40);
 358              		.loc 1 156 0
 359 0176 0020     		mov	r0, #0
 360 0178 C021     		mov	r1, #192
 361 017a FFF751FF 		bl	writeLCD
 157:testLcd.c     **** 	delay37us();
 362              		.loc 1 157 0
 363 017e FFF73FFF 		bl	delay37us
 158:testLcd.c     **** }
 364              		.loc 1 158 0
 365              		@ sp needed for prologue
 366 0182 01BC     		pop	{r0}
 367 0184 0047     		bx	r0
 368              	.LFE8:
 369              		.size	writeNewLine, .-writeNewLine
 370 0186 0000     		.align	2
 371              		.global	clearLCD
 372              		.code 16
 373              		.thumb_func
 374              		.type	clearLCD, %function
 375              	clearLCD:
 376              	.LFB9:
 159:testLcd.c     **** 
 160:testLcd.c     **** void clearLCD()
 161:testLcd.c     **** {
 377              		.loc 1 161 0
 378 0188 00B5     		push	{lr}
 379              	.LCFI6:
 162:testLcd.c     **** 	writeLCD(0, 0x01);
 380              		.loc 1 162 0
 381 018a 0020     		mov	r0, #0
 382 018c 0121     		mov	r1, #1
 383 018e FFF747FF 		bl	writeLCD
 163:testLcd.c     ****     osSleep(1);
 384              		.loc 1 163 0
 385 0192 0120     		mov	r0, #1
 386 0194 FFF7FEFF 		bl	osSleep
 164:testLcd.c     **** }
 387              		.loc 1 164 0
 388              		@ sp needed for prologue
 389 0198 01BC     		pop	{r0}
 390 019a 0047     		bx	r0
 391              	.LFE9:
 392              		.size	clearLCD, .-clearLCD
 393              		.section	.rodata.str1.4,"aMS",%progbits,1
 394              		.align	2
 395              	.LC0:
 396 0000 61736461 		.ascii	"asdasd \012\000"
 396      7364200A 
 396      00
 397 0009 000000   		.text
 398              		.align	2
 399              		.global	testLcd
 400              		.code 16
ARM GAS  /cygdrive/c/DOCUME~1/mkwapisz/LOCALS~1/Temp/ccrRMyZd.s 			page 11


 401              		.thumb_func
 402              		.type	testLcd, %function
 403              	testLcd:
 404              	.LFB10:
 165:testLcd.c     **** 
 166:testLcd.c     **** /*****************************************************************************
 167:testLcd.c     ****  *
 168:testLcd.c     ****  * Description:
 169:testLcd.c     ****  *    A process entry function 
 170:testLcd.c     ****  *
 171:testLcd.c     ****  ****************************************************************************/
 172:testLcd.c     **** void
 173:testLcd.c     **** testLcd(void)
 174:testLcd.c     **** {
 405              		.loc 1 174 0
 406 019c 00B5     		push	{lr}
 407              	.LCFI7:
 175:testLcd.c     **** 	printf("asdasd \n");
 408              		.loc 1 175 0
 409 019e 3048     		ldr	r0, .L46
 410 01a0 FFF7FEFF 		bl	simplePrintf
 411              	.LBB7:
 412              	.LBB8:
 413              		.loc 1 32 0
 414 01a4 2F4A     		ldr	r2, .L46+4
 415 01a6 3049     		ldr	r1, .L46+8
 416 01a8 1368     		ldr	r3, [r2]
 417 01aa 0B43     		orr	r3, r3, r1
 418 01ac 1360     		str	r3, [r2]
 419              		.loc 1 33 0
 420 01ae 2F4B     		ldr	r3, .L46+12
 421 01b0 1960     		str	r1, [r3]
 422              		.loc 1 35 0
 423 01b2 2F49     		ldr	r1, .L46+16
 424 01b4 8022     		mov	r2, #128
 425 01b6 0B68     		ldr	r3, [r1]
 426 01b8 D203     		lsl	r2, r2, #15
 427              		.loc 1 36 0
 428 01ba 2E48     		ldr	r0, .L46+20
 429              		.loc 1 35 0
 430 01bc 1343     		orr	r3, r3, r2
 431 01be 0B60     		str	r3, [r1]
 432              		.loc 1 36 0
 433 01c0 0260     		str	r2, [r0]
 434              		.loc 1 38 0
 435 01c2 8022     		mov	r2, #128
 436 01c4 0B68     		ldr	r3, [r1]
 437 01c6 D205     		lsl	r2, r2, #23
 438 01c8 1343     		orr	r3, r3, r2
 439 01ca 0B60     		str	r3, [r1]
 440              	.LBE8:
 441              	.LBE7:
 442              	.LBB9:
 443              	.LBB10:
 444              		.loc 1 99 0
 445 01cc 2A4B     		ldr	r3, .L46+24
 446              	.LBE10:
ARM GAS  /cygdrive/c/DOCUME~1/mkwapisz/LOCALS~1/Temp/ccrRMyZd.s 			page 12


 447              	.LBE9:
 448              	.LBB11:
 449              	.LBB12:
 450              		.loc 1 39 0
 451 01ce 0260     		str	r2, [r0]
 452              	.LBE12:
 453              	.LBE11:
 454              	.LBB13:
 455              	.LBB14:
 456              		.loc 1 99 0
 457 01d0 1A60     		str	r2, [r3]
 458              	.L44:
 459              	.LBE14:
 460              	.LBE13:
 176:testLcd.c     ****   initLCD();
 177:testLcd.c     **** 	//lcdBacklight(FALSE);
 178:testLcd.c     ****   //osSleep(10);
 179:testLcd.c     ****   lcdBacklight(TRUE);
 180:testLcd.c     ****   for(;;)
 181:testLcd.c     ****   {
 182:testLcd.c     ****     osSleep(50);
 461              		.loc 1 182 0
 462 01d2 3220     		mov	r0, #50
 463 01d4 FFF7FEFF 		bl	osSleep
 183:testLcd.c     **** 
 184:testLcd.c     ****     //function set
 185:testLcd.c     ****     writeLCD(0, 0x30);
 464              		.loc 1 185 0
 465 01d8 3021     		mov	r1, #48
 466 01da 0020     		mov	r0, #0
 467 01dc FFF720FF 		bl	writeLCD
 186:testLcd.c     ****     osSleep(1);
 468              		.loc 1 186 0
 469 01e0 0120     		mov	r0, #1
 470 01e2 FFF7FEFF 		bl	osSleep
 187:testLcd.c     ****     writeLCD(0, 0x30);
 471              		.loc 1 187 0
 472 01e6 0020     		mov	r0, #0
 473 01e8 3021     		mov	r1, #48
 474 01ea FFF719FF 		bl	writeLCD
 188:testLcd.c     ****     delay37us();
 475              		.loc 1 188 0
 476 01ee FFF707FF 		bl	delay37us
 189:testLcd.c     ****     writeLCD(0, 0x30);
 477              		.loc 1 189 0
 478 01f2 0020     		mov	r0, #0
 479 01f4 3021     		mov	r1, #48
 480 01f6 FFF713FF 		bl	writeLCD
 190:testLcd.c     ****     delay37us();
 481              		.loc 1 190 0
 482 01fa FFF701FF 		bl	delay37us
 191:testLcd.c     **** 
 192:testLcd.c     ****     //function set
 193:testLcd.c     ****     writeLCD(0, 0x38);
 483              		.loc 1 193 0
 484 01fe 0020     		mov	r0, #0
 485 0200 3821     		mov	r1, #56
ARM GAS  /cygdrive/c/DOCUME~1/mkwapisz/LOCALS~1/Temp/ccrRMyZd.s 			page 13


 486 0202 FFF70DFF 		bl	writeLCD
 194:testLcd.c     ****     delay37us();
 487              		.loc 1 194 0
 488 0206 FFF7FBFE 		bl	delay37us
 195:testLcd.c     **** 
 196:testLcd.c     ****     //display off
 197:testLcd.c     ****     writeLCD(0, 0x08);
 489              		.loc 1 197 0
 490 020a 0020     		mov	r0, #0
 491 020c 0821     		mov	r1, #8
 492 020e FFF707FF 		bl	writeLCD
 198:testLcd.c     ****     delay37us();
 493              		.loc 1 198 0
 494 0212 FFF7F5FE 		bl	delay37us
 199:testLcd.c     **** 
 200:testLcd.c     ****     //display clear
 201:testLcd.c     ****     writeLCD(0, 0x01);
 495              		.loc 1 201 0
 496 0216 0121     		mov	r1, #1
 497 0218 0020     		mov	r0, #0
 498 021a FFF701FF 		bl	writeLCD
 202:testLcd.c     ****     osSleep(1); //actually only 1.52 mS needed
 499              		.loc 1 202 0
 500 021e 0120     		mov	r0, #1
 501 0220 FFF7FEFF 		bl	osSleep
 203:testLcd.c     ****       
 204:testLcd.c     ****     //display control set
 205:testLcd.c     ****     writeLCD(0, 0x06);
 502              		.loc 1 205 0
 503 0224 0621     		mov	r1, #6
 504 0226 0020     		mov	r0, #0
 505 0228 FFF7FAFE 		bl	writeLCD
 206:testLcd.c     ****     osSleep(1);
 506              		.loc 1 206 0
 507 022c 0120     		mov	r0, #1
 508 022e FFF7FEFF 		bl	osSleep
 207:testLcd.c     **** 
 208:testLcd.c     ****     //display control set
 209:testLcd.c     ****     writeLCD(0, 0x0c);
 509              		.loc 1 209 0
 510 0232 0020     		mov	r0, #0
 511 0234 0C21     		mov	r1, #12
 512 0236 FFF7F3FE 		bl	writeLCD
 210:testLcd.c     ****     delay37us();
 513              		.loc 1 210 0
 514 023a FFF7E1FE 		bl	delay37us
 211:testLcd.c     **** 
 212:testLcd.c     ****     //cursor home
 213:testLcd.c     **** 
 214:testLcd.c     ****     writeLCD(0, 0x02);
 515              		.loc 1 214 0
 516 023e 0221     		mov	r1, #2
 517 0240 0020     		mov	r0, #0
 518 0242 FFF7EDFE 		bl	writeLCD
 215:testLcd.c     ****   osSleep(1);
 519              		.loc 1 215 0
 520 0246 0120     		mov	r0, #1
ARM GAS  /cygdrive/c/DOCUME~1/mkwapisz/LOCALS~1/Temp/ccrRMyZd.s 			page 14


 521 0248 FFF7FEFF 		bl	osSleep
 216:testLcd.c     **** 	
 217:testLcd.c     **** 	//writeString("trolol");
 218:testLcd.c     **** 	//writeNewLine();
 219:testLcd.c     **** 	//writeInt(12345);
 220:testLcd.c     **** 	//osSleep(2000);
 221:testLcd.c     **** 	writeInt(timerCnt);
 522              		.loc 1 221 0
 523 024c 0B4B     		ldr	r3, .L46+28
 524 024e 1868     		ldr	r0, [r3]
 525 0250 FFF7FEFF 		bl	writeInt
 222:testLcd.c     **** 	osSleep(50);
 526              		.loc 1 222 0
 527 0254 3220     		mov	r0, #50
 528 0256 FFF7FEFF 		bl	osSleep
 223:testLcd.c     **** 	clearLCD();
 529              		.loc 1 223 0
 530 025a FFF7FEFF 		bl	clearLCD
 531 025e B8E7     		b	.L44
 532              	.L47:
 533              		.align	2
 534              	.L46:
 535 0260 00000000 		.word	.LC0
 536 0264 188002E0 		.word	-536707048
 537 0268 0000FF03 		.word	67043328
 538 026c 1C8002E0 		.word	-536707044
 539 0270 088002E0 		.word	-536707064
 540 0274 0C8002E0 		.word	-536707060
 541 0278 048002E0 		.word	-536707068
 542 027c 00000000 		.word	timerCnt
 543              	.LFE10:
 544              		.size	testLcd, .-testLcd
 545              		.section	.debug_frame,"",%progbits
 546              	.Lframe0:
 547 0000 0C000000 		.4byte	.LECIE0-.LSCIE0
 548              	.LSCIE0:
 549 0004 FFFFFFFF 		.4byte	0xffffffff
 550 0008 01       		.byte	0x1
 551 0009 00       		.ascii	"\000"
 552 000a 01       		.uleb128 0x1
 553 000b 7C       		.sleb128 -4
 554 000c 0E       		.byte	0xe
 555 000d 0C       		.byte	0xc
 556 000e 0D       		.uleb128 0xd
 557 000f 00       		.uleb128 0x0
 558              		.align	2
 559              	.LECIE0:
 560              	.LSFDE0:
 561 0010 10000000 		.4byte	.LEFDE0-.LASFDE0
 562              	.LASFDE0:
 563 0014 00000000 		.4byte	.Lframe0
 564 0018 00000000 		.4byte	.LFB3
 565 001c 20000000 		.4byte	.LFE3-.LFB3
 566 0020 42       		.byte	0x4
 567              		.4byte	.LCFI0-.LFB3
 568 0021 0E       		.byte	0xe
 569 0022 04       		.uleb128 0x4
ARM GAS  /cygdrive/c/DOCUME~1/mkwapisz/LOCALS~1/Temp/ccrRMyZd.s 			page 15


 570 0023 00       		.align	2
 571              	.LEFDE0:
 572              	.LSFDE2:
 573 0024 10000000 		.4byte	.LEFDE2-.LASFDE2
 574              	.LASFDE2:
 575 0028 00000000 		.4byte	.Lframe0
 576 002c 20000000 		.4byte	.LFB4
 577 0030 90000000 		.4byte	.LFE4-.LFB4
 578 0034 46       		.byte	0x4
 579              		.4byte	.LCFI1-.LFB4
 580 0035 0E       		.byte	0xe
 581 0036 04       		.uleb128 0x4
 582 0037 00       		.align	2
 583              	.LEFDE2:
 584              	.LSFDE4:
 585 0038 14000000 		.4byte	.LEFDE4-.LASFDE4
 586              	.LASFDE4:
 587 003c 00000000 		.4byte	.Lframe0
 588 0040 B0000000 		.4byte	.LFB6
 589 0044 1E000000 		.4byte	.LFE6-.LFB6
 590 0048 42       		.byte	0x4
 591              		.4byte	.LCFI2-.LFB6
 592 0049 0E       		.byte	0xe
 593 004a 08       		.uleb128 0x8
 594 004b 84       		.byte	0x84
 595 004c 02       		.uleb128 0x2
 596 004d 8E       		.byte	0x8e
 597 004e 01       		.uleb128 0x1
 598 004f 00       		.align	2
 599              	.LEFDE4:
 600              	.LSFDE6:
 601 0050 1C000000 		.4byte	.LEFDE6-.LASFDE6
 602              	.LASFDE6:
 603 0054 00000000 		.4byte	.Lframe0
 604 0058 D0000000 		.4byte	.LFB7
 605 005c A2000000 		.4byte	.LFE7-.LFB7
 606 0060 42       		.byte	0x4
 607              		.4byte	.LCFI3-.LFB7
 608 0061 0E       		.byte	0xe
 609 0062 14       		.uleb128 0x14
 610 0063 84       		.byte	0x84
 611 0064 05       		.uleb128 0x5
 612 0065 85       		.byte	0x85
 613 0066 04       		.uleb128 0x4
 614 0067 86       		.byte	0x86
 615 0068 03       		.uleb128 0x3
 616 0069 87       		.byte	0x87
 617 006a 02       		.uleb128 0x2
 618 006b 8E       		.byte	0x8e
 619 006c 01       		.uleb128 0x1
 620 006d 42       		.byte	0x4
 621              		.4byte	.LCFI4-.LCFI3
 622 006e 0E       		.byte	0xe
 623 006f 44       		.uleb128 0x44
 624              		.align	2
 625              	.LEFDE6:
 626              	.LSFDE8:
ARM GAS  /cygdrive/c/DOCUME~1/mkwapisz/LOCALS~1/Temp/ccrRMyZd.s 			page 16


 627 0070 14000000 		.4byte	.LEFDE8-.LASFDE8
 628              	.LASFDE8:
 629 0074 00000000 		.4byte	.Lframe0
 630 0078 74010000 		.4byte	.LFB8
 631 007c 12000000 		.4byte	.LFE8-.LFB8
 632 0080 42       		.byte	0x4
 633              		.4byte	.LCFI5-.LFB8
 634 0081 0E       		.byte	0xe
 635 0082 04       		.uleb128 0x4
 636 0083 8E       		.byte	0x8e
 637 0084 01       		.uleb128 0x1
 638 0085 000000   		.align	2
 639              	.LEFDE8:
 640              	.LSFDE10:
 641 0088 14000000 		.4byte	.LEFDE10-.LASFDE10
 642              	.LASFDE10:
 643 008c 00000000 		.4byte	.Lframe0
 644 0090 88010000 		.4byte	.LFB9
 645 0094 14000000 		.4byte	.LFE9-.LFB9
 646 0098 42       		.byte	0x4
 647              		.4byte	.LCFI6-.LFB9
 648 0099 0E       		.byte	0xe
 649 009a 04       		.uleb128 0x4
 650 009b 8E       		.byte	0x8e
 651 009c 01       		.uleb128 0x1
 652 009d 000000   		.align	2
 653              	.LEFDE10:
 654              	.LSFDE12:
 655 00a0 14000000 		.4byte	.LEFDE12-.LASFDE12
 656              	.LASFDE12:
 657 00a4 00000000 		.4byte	.Lframe0
 658 00a8 9C010000 		.4byte	.LFB10
 659 00ac E4000000 		.4byte	.LFE10-.LFB10
 660 00b0 42       		.byte	0x4
 661              		.4byte	.LCFI7-.LFB10
 662 00b1 0E       		.byte	0xe
 663 00b2 04       		.uleb128 0x4
 664 00b3 8E       		.byte	0x8e
 665 00b4 01       		.uleb128 0x1
 666 00b5 000000   		.align	2
 667              	.LEFDE12:
 668              		.file 2 "./startup/../pre_emptive_os/api/../api/general.h"
 669              		.text
 670              	.Letext0:
 671              		.section	.debug_loc,"",%progbits
 672              	.Ldebug_loc0:
 673              	.LLST0:
 674 0000 00000000 		.4byte	.LFB3-.Ltext0
 675 0004 02000000 		.4byte	.LCFI0-.Ltext0
 676 0008 0100     		.2byte	0x1
 677 000a 5D       		.byte	0x5d
 678 000b 02000000 		.4byte	.LCFI0-.Ltext0
 679 000f 20000000 		.4byte	.LFE3-.Ltext0
 680 0013 0200     		.2byte	0x2
 681 0015 7D       		.byte	0x7d
 682 0016 04       		.sleb128 4
 683 0017 00000000 		.4byte	0x0
ARM GAS  /cygdrive/c/DOCUME~1/mkwapisz/LOCALS~1/Temp/ccrRMyZd.s 			page 17


 684 001b 00000000 		.4byte	0x0
 685              	.LLST1:
 686 001f 20000000 		.4byte	.LFB4-.Ltext0
 687 0023 26000000 		.4byte	.LCFI1-.Ltext0
 688 0027 0100     		.2byte	0x1
 689 0029 5D       		.byte	0x5d
 690 002a 26000000 		.4byte	.LCFI1-.Ltext0
 691 002e B0000000 		.4byte	.LFE4-.Ltext0
 692 0032 0200     		.2byte	0x2
 693 0034 7D       		.byte	0x7d
 694 0035 04       		.sleb128 4
 695 0036 00000000 		.4byte	0x0
 696 003a 00000000 		.4byte	0x0
 697              	.LLST2:
 698 003e 20000000 		.4byte	.LVL1-.Ltext0
 699 0042 24000000 		.4byte	.LVL3-.Ltext0
 700 0046 0100     		.2byte	0x1
 701 0048 50       		.byte	0x50
 702 0049 00000000 		.4byte	0x0
 703 004d 00000000 		.4byte	0x0
 704              	.LLST3:
 705 0051 20000000 		.4byte	.LVL1-.Ltext0
 706 0055 22000000 		.4byte	.LVL2-.Ltext0
 707 0059 0100     		.2byte	0x1
 708 005b 51       		.byte	0x51
 709 005c 28000000 		.4byte	.LVL4-.Ltext0
 710 0060 64000000 		.4byte	.LVL6-.Ltext0
 711 0064 0100     		.2byte	0x1
 712 0066 51       		.byte	0x51
 713 0067 70000000 		.4byte	.LVL8-.Ltext0
 714 006b 72000000 		.4byte	.LVL9-.Ltext0
 715 006f 0100     		.2byte	0x1
 716 0071 51       		.byte	0x51
 717 0072 00000000 		.4byte	0x0
 718 0076 00000000 		.4byte	0x0
 719              	.LLST4:
 720 007a 62000000 		.4byte	.LVL5-.Ltext0
 721 007e 64000000 		.4byte	.LVL6-.Ltext0
 722 0082 0200     		.2byte	0x2
 723 0084 73       		.byte	0x73
 724 0085 00       		.sleb128 0
 725 0086 64000000 		.4byte	.LVL6-.Ltext0
 726 008a 6A000000 		.4byte	.LVL7-.Ltext0
 727 008e 0100     		.2byte	0x1
 728 0090 53       		.byte	0x53
 729 0091 6A000000 		.4byte	.LVL7-.Ltext0
 730 0095 70000000 		.4byte	.LVL8-.Ltext0
 731 0099 0200     		.2byte	0x2
 732 009b 71       		.byte	0x71
 733 009c 00       		.sleb128 0
 734 009d 70000000 		.4byte	.LVL8-.Ltext0
 735 00a1 7A000000 		.4byte	.LVL10-.Ltext0
 736 00a5 0200     		.2byte	0x2
 737 00a7 73       		.byte	0x73
 738 00a8 00       		.sleb128 0
 739 00a9 7A000000 		.4byte	.LVL10-.Ltext0
 740 00ad 7C000000 		.4byte	.LVL11-.Ltext0
ARM GAS  /cygdrive/c/DOCUME~1/mkwapisz/LOCALS~1/Temp/ccrRMyZd.s 			page 18


 741 00b1 0100     		.2byte	0x1
 742 00b3 53       		.byte	0x53
 743 00b4 7C000000 		.4byte	.LVL11-.Ltext0
 744 00b8 88000000 		.4byte	.LVL12-.Ltext0
 745 00bc 0200     		.2byte	0x2
 746 00be 71       		.byte	0x71
 747 00bf 00       		.sleb128 0
 748 00c0 88000000 		.4byte	.LVL12-.Ltext0
 749 00c4 8E000000 		.4byte	.LVL13-.Ltext0
 750 00c8 0100     		.2byte	0x1
 751 00ca 53       		.byte	0x53
 752 00cb 8E000000 		.4byte	.LVL13-.Ltext0
 753 00cf 94000000 		.4byte	.LVL14-.Ltext0
 754 00d3 0200     		.2byte	0x2
 755 00d5 72       		.byte	0x72
 756 00d6 00       		.sleb128 0
 757 00d7 94000000 		.4byte	.LVL14-.Ltext0
 758 00db 9E000000 		.4byte	.LVL15-.Ltext0
 759 00df 0200     		.2byte	0x2
 760 00e1 71       		.byte	0x71
 761 00e2 00       		.sleb128 0
 762 00e3 9E000000 		.4byte	.LVL15-.Ltext0
 763 00e7 B0000000 		.4byte	.LFE4-.Ltext0
 764 00eb 0100     		.2byte	0x1
 765 00ed 53       		.byte	0x53
 766 00ee 00000000 		.4byte	0x0
 767 00f2 00000000 		.4byte	0x0
 768              	.LLST5:
 769 00f6 B0000000 		.4byte	.LFB6-.Ltext0
 770 00fa B2000000 		.4byte	.LCFI2-.Ltext0
 771 00fe 0100     		.2byte	0x1
 772 0100 5D       		.byte	0x5d
 773 0101 B2000000 		.4byte	.LCFI2-.Ltext0
 774 0105 CE000000 		.4byte	.LFE6-.Ltext0
 775 0109 0200     		.2byte	0x2
 776 010b 7D       		.byte	0x7d
 777 010c 08       		.sleb128 8
 778 010d 00000000 		.4byte	0x0
 779 0111 00000000 		.4byte	0x0
 780              	.LLST6:
 781 0115 B2000000 		.4byte	.LVL16-.Ltext0
 782 0119 B8000000 		.4byte	.LVL17-.Ltext0
 783 011d 0100     		.2byte	0x1
 784 011f 50       		.byte	0x50
 785 0120 C0000000 		.4byte	.LVL18-.Ltext0
 786 0124 CE000000 		.4byte	.LFE6-.Ltext0
 787 0128 0100     		.2byte	0x1
 788 012a 50       		.byte	0x50
 789 012b 00000000 		.4byte	0x0
 790 012f 00000000 		.4byte	0x0
 791              	.LLST7:
 792 0133 D0000000 		.4byte	.LFB7-.Ltext0
 793 0137 D2000000 		.4byte	.LCFI3-.Ltext0
 794 013b 0100     		.2byte	0x1
 795 013d 5D       		.byte	0x5d
 796 013e D2000000 		.4byte	.LCFI3-.Ltext0
 797 0142 D4000000 		.4byte	.LCFI4-.Ltext0
ARM GAS  /cygdrive/c/DOCUME~1/mkwapisz/LOCALS~1/Temp/ccrRMyZd.s 			page 19


 798 0146 0200     		.2byte	0x2
 799 0148 7D       		.byte	0x7d
 800 0149 14       		.sleb128 20
 801 014a D4000000 		.4byte	.LCFI4-.Ltext0
 802 014e 72010000 		.4byte	.LFE7-.Ltext0
 803 0152 0300     		.2byte	0x3
 804 0154 7D       		.byte	0x7d
 805 0155 C400     		.sleb128 68
 806 0157 00000000 		.4byte	0x0
 807 015b 00000000 		.4byte	0x0
 808              	.LLST8:
 809 015f D2000000 		.4byte	.LVL19-.Ltext0
 810 0163 DC000000 		.4byte	.LVL20-.Ltext0
 811 0167 0100     		.2byte	0x1
 812 0169 50       		.byte	0x50
 813 016a DC000000 		.4byte	.LVL20-.Ltext0
 814 016e 72010000 		.4byte	.LFE7-.Ltext0
 815 0172 0200     		.2byte	0x2
 816 0174 91       		.byte	0x91
 817 0175 50       		.sleb128 -48
 818 0176 00000000 		.4byte	0x0
 819 017a 00000000 		.4byte	0x0
 820              	.LLST9:
 821 017e EC000000 		.4byte	.LVL25-.Ltext0
 822 0182 6C010000 		.4byte	.LVL36-.Ltext0
 823 0186 0100     		.2byte	0x1
 824 0188 57       		.byte	0x57
 825 0189 00000000 		.4byte	0x0
 826 018d 00000000 		.4byte	0x0
 827              	.LLST10:
 828 0191 E6000000 		.4byte	.LVL22-.Ltext0
 829 0195 F4000000 		.4byte	.LVL28-.Ltext0
 830 0199 0100     		.2byte	0x1
 831 019b 53       		.byte	0x53
 832 019c 36010000 		.4byte	.LVL29-.Ltext0
 833 01a0 40010000 		.4byte	.LVL31-.Ltext0
 834 01a4 0100     		.2byte	0x1
 835 01a6 53       		.byte	0x53
 836 01a7 00000000 		.4byte	0x0
 837 01ab 00000000 		.4byte	0x0
 838              	.LLST11:
 839 01af DC000000 		.4byte	.LVL21-.Ltext0
 840 01b3 E8000000 		.4byte	.LVL23-.Ltext0
 841 01b7 0100     		.2byte	0x1
 842 01b9 50       		.byte	0x50
 843 01ba EA000000 		.4byte	.LVL24-.Ltext0
 844 01be F2000000 		.4byte	.LVL27-.Ltext0
 845 01c2 0100     		.2byte	0x1
 846 01c4 56       		.byte	0x56
 847 01c5 F2000000 		.4byte	.LVL27-.Ltext0
 848 01c9 3E010000 		.4byte	.LVL30-.Ltext0
 849 01cd 0100     		.2byte	0x1
 850 01cf 54       		.byte	0x54
 851 01d0 00000000 		.4byte	0x0
 852 01d4 00000000 		.4byte	0x0
 853              	.LLST12:
 854 01d8 48010000 		.4byte	.LVL32-.Ltext0
ARM GAS  /cygdrive/c/DOCUME~1/mkwapisz/LOCALS~1/Temp/ccrRMyZd.s 			page 20


 855 01dc 6A010000 		.4byte	.LVL33-.Ltext0
 856 01e0 0100     		.2byte	0x1
 857 01e2 51       		.byte	0x51
 858 01e3 00000000 		.4byte	0x0
 859 01e7 00000000 		.4byte	0x0
 860              	.LLST13:
 861 01eb F2000000 		.4byte	.LVL27-.Ltext0
 862 01ef 6C010000 		.4byte	.LVL34-.Ltext0
 863 01f3 0100     		.2byte	0x1
 864 01f5 55       		.byte	0x55
 865 01f6 00000000 		.4byte	0x0
 866 01fa 00000000 		.4byte	0x0
 867              	.LLST14:
 868 01fe 74010000 		.4byte	.LFB8-.Ltext0
 869 0202 76010000 		.4byte	.LCFI5-.Ltext0
 870 0206 0100     		.2byte	0x1
 871 0208 5D       		.byte	0x5d
 872 0209 76010000 		.4byte	.LCFI5-.Ltext0
 873 020d 86010000 		.4byte	.LFE8-.Ltext0
 874 0211 0200     		.2byte	0x2
 875 0213 7D       		.byte	0x7d
 876 0214 04       		.sleb128 4
 877 0215 00000000 		.4byte	0x0
 878 0219 00000000 		.4byte	0x0
 879              	.LLST15:
 880 021d 88010000 		.4byte	.LFB9-.Ltext0
 881 0221 8A010000 		.4byte	.LCFI6-.Ltext0
 882 0225 0100     		.2byte	0x1
 883 0227 5D       		.byte	0x5d
 884 0228 8A010000 		.4byte	.LCFI6-.Ltext0
 885 022c 9C010000 		.4byte	.LFE9-.Ltext0
 886 0230 0200     		.2byte	0x2
 887 0232 7D       		.byte	0x7d
 888 0233 04       		.sleb128 4
 889 0234 00000000 		.4byte	0x0
 890 0238 00000000 		.4byte	0x0
 891              	.LLST16:
 892 023c 9C010000 		.4byte	.LFB10-.Ltext0
 893 0240 9E010000 		.4byte	.LCFI7-.Ltext0
 894 0244 0100     		.2byte	0x1
 895 0246 5D       		.byte	0x5d
 896 0247 9E010000 		.4byte	.LCFI7-.Ltext0
 897 024b 80020000 		.4byte	.LFE10-.Ltext0
 898 024f 0200     		.2byte	0x2
 899 0251 7D       		.byte	0x7d
 900 0252 04       		.sleb128 4
 901 0253 00000000 		.4byte	0x0
 902 0257 00000000 		.4byte	0x0
 903              		.section	.debug_info
 904 0000 5C020000 		.4byte	0x25c
 905 0004 0200     		.2byte	0x2
 906 0006 00000000 		.4byte	.Ldebug_abbrev0
 907 000a 04       		.byte	0x4
 908 000b 01       		.uleb128 0x1
 909 000c 00000000 		.4byte	.Ldebug_line0
 910 0010 80020000 		.4byte	.Letext0
 911 0014 00000000 		.4byte	.Ltext0
ARM GAS  /cygdrive/c/DOCUME~1/mkwapisz/LOCALS~1/Temp/ccrRMyZd.s 			page 21


 912 0018 CD000000 		.4byte	.LASF25
 913 001c 01       		.byte	0x1
 914 001d EE000000 		.4byte	.LASF26
 915 0021 02010000 		.4byte	.LASF27
 916 0025 02       		.uleb128 0x2
 917 0026 74553800 		.ascii	"tU8\000"
 918 002a 02       		.byte	0x2
 919 002b 47       		.byte	0x47
 920 002c 30000000 		.4byte	0x30
 921 0030 03       		.uleb128 0x3
 922 0031 48000000 		.4byte	.LASF0
 923 0035 01       		.byte	0x1
 924 0036 08       		.byte	0x8
 925 0037 03       		.uleb128 0x3
 926 0038 71000000 		.4byte	.LASF1
 927 003c 02       		.byte	0x2
 928 003d 07       		.byte	0x7
 929 003e 04       		.uleb128 0x4
 930 003f E4000000 		.4byte	.LASF2
 931 0043 02       		.byte	0x2
 932 0044 49       		.byte	0x49
 933 0045 49000000 		.4byte	0x49
 934 0049 03       		.uleb128 0x3
 935 004a 9E000000 		.4byte	.LASF3
 936 004e 04       		.byte	0x4
 937 004f 07       		.byte	0x7
 938 0050 03       		.uleb128 0x3
 939 0051 31010000 		.4byte	.LASF4
 940 0055 01       		.byte	0x1
 941 0056 06       		.byte	0x6
 942 0057 03       		.uleb128 0x3
 943 0058 F8000000 		.4byte	.LASF5
 944 005c 02       		.byte	0x2
 945 005d 05       		.byte	0x5
 946 005e 05       		.uleb128 0x5
 947 005f 696E7400 		.ascii	"int\000"
 948 0063 04       		.byte	0x4
 949 0064 05       		.byte	0x5
 950 0065 03       		.uleb128 0x3
 951 0066 5F000000 		.4byte	.LASF6
 952 006a 04       		.byte	0x4
 953 006b 07       		.byte	0x7
 954 006c 06       		.uleb128 0x6
 955 006d 91000000 		.4byte	0x91
 956 0071 AB000000 		.4byte	.LASF7
 957 0075 01       		.byte	0x1
 958 0076 32       		.byte	0x32
 959 0077 01       		.byte	0x1
 960 0078 00000000 		.4byte	.LFB3
 961 007c 20000000 		.4byte	.LFE3
 962 0080 00000000 		.4byte	.LLST0
 963 0084 07       		.uleb128 0x7
 964 0085 6900     		.ascii	"i\000"
 965 0087 01       		.byte	0x1
 966 0088 33       		.byte	0x33
 967 0089 91000000 		.4byte	0x91
 968 008d 02       		.byte	0x2
ARM GAS  /cygdrive/c/DOCUME~1/mkwapisz/LOCALS~1/Temp/ccrRMyZd.s 			page 22


 969 008e 91       		.byte	0x91
 970 008f 7C       		.sleb128 -4
 971 0090 00       		.byte	0x0
 972 0091 08       		.uleb128 0x8
 973 0092 3E000000 		.4byte	0x3e
 974 0096 06       		.uleb128 0x6
 975 0097 DA000000 		.4byte	0xda
 976 009b 22000000 		.4byte	.LASF8
 977 009f 01       		.byte	0x1
 978 00a0 42       		.byte	0x42
 979 00a1 01       		.byte	0x1
 980 00a2 20000000 		.4byte	.LFB4
 981 00a6 B0000000 		.4byte	.LFE4
 982 00aa 1F000000 		.4byte	.LLST1
 983 00ae 09       		.uleb128 0x9
 984 00af 72656700 		.ascii	"reg\000"
 985 00b3 01       		.byte	0x1
 986 00b4 41       		.byte	0x41
 987 00b5 25000000 		.4byte	0x25
 988 00b9 3E000000 		.4byte	.LLST2
 989 00bd 0A       		.uleb128 0xa
 990 00be 08000000 		.4byte	.LASF9
 991 00c2 01       		.byte	0x1
 992 00c3 41       		.byte	0x41
 993 00c4 25000000 		.4byte	0x25
 994 00c8 51000000 		.4byte	.LLST3
 995 00cc 0B       		.uleb128 0xb
 996 00cd 6900     		.ascii	"i\000"
 997 00cf 01       		.byte	0x1
 998 00d0 43       		.byte	0x43
 999 00d1 DA000000 		.4byte	0xda
 1000 00d5 7A000000 		.4byte	.LLST4
 1001 00d9 00       		.byte	0x0
 1002 00da 08       		.uleb128 0x8
 1003 00db 25000000 		.4byte	0x25
 1004 00df 0C       		.uleb128 0xc
 1005 00e0 11010000 		.4byte	0x111
 1006 00e4 01       		.byte	0x1
 1007 00e5 92000000 		.4byte	.LASF12
 1008 00e9 01       		.byte	0x1
 1009 00ea 69       		.byte	0x69
 1010 00eb 01       		.byte	0x1
 1011 00ec B0000000 		.4byte	.LFB6
 1012 00f0 CE000000 		.4byte	.LFE6
 1013 00f4 F6000000 		.4byte	.LLST5
 1014 00f8 0A       		.uleb128 0xa
 1015 00f9 00000000 		.4byte	.LASF10
 1016 00fd 01       		.byte	0x1
 1017 00fe 68       		.byte	0x68
 1018 00ff 11010000 		.4byte	0x111
 1019 0103 15010000 		.4byte	.LLST6
 1020 0107 0D       		.uleb128 0xd
 1021 0108 6900     		.ascii	"i\000"
 1022 010a 01       		.byte	0x1
 1023 010b 6A       		.byte	0x6a
 1024 010c 5E000000 		.4byte	0x5e
 1025 0110 00       		.byte	0x0
ARM GAS  /cygdrive/c/DOCUME~1/mkwapisz/LOCALS~1/Temp/ccrRMyZd.s 			page 23


 1026 0111 0E       		.uleb128 0xe
 1027 0112 04       		.byte	0x4
 1028 0113 17010000 		.4byte	0x117
 1029 0117 03       		.uleb128 0x3
 1030 0118 E9000000 		.4byte	.LASF11
 1031 011c 01       		.byte	0x1
 1032 011d 08       		.byte	0x8
 1033 011e 0C       		.uleb128 0xc
 1034 011f C2010000 		.4byte	0x1c2
 1035 0123 01       		.byte	0x1
 1036 0124 2B000000 		.4byte	.LASF13
 1037 0128 01       		.byte	0x1
 1038 0129 75       		.byte	0x75
 1039 012a 01       		.byte	0x1
 1040 012b D0000000 		.4byte	.LFB7
 1041 012f 72010000 		.4byte	.LFE7
 1042 0133 33010000 		.4byte	.LLST7
 1043 0137 0A       		.uleb128 0xa
 1044 0138 C6000000 		.4byte	.LASF14
 1045 013c 01       		.byte	0x1
 1046 013d 74       		.byte	0x74
 1047 013e 5E000000 		.4byte	0x5e
 1048 0142 5F010000 		.4byte	.LLST8
 1049 0146 0F       		.uleb128 0xf
 1050 0147 00000000 		.4byte	.LASF10
 1051 014b 01       		.byte	0x1
 1052 014c 76       		.byte	0x76
 1053 014d C2010000 		.4byte	0x1c2
 1054 0151 02       		.byte	0x2
 1055 0152 91       		.byte	0x91
 1056 0153 58       		.sleb128 -40
 1057 0154 07       		.uleb128 0x7
 1058 0155 746D7000 		.ascii	"tmp\000"
 1059 0159 01       		.byte	0x1
 1060 015a 76       		.byte	0x76
 1061 015b C2010000 		.4byte	0x1c2
 1062 015f 02       		.byte	0x2
 1063 0160 91       		.byte	0x91
 1064 0161 44       		.sleb128 -60
 1065 0162 10       		.uleb128 0x10
 1066 0163 29010000 		.4byte	.LASF15
 1067 0167 01       		.byte	0x1
 1068 0168 78       		.byte	0x78
 1069 0169 5E000000 		.4byte	0x5e
 1070 016d 7E010000 		.4byte	.LLST9
 1071 0171 0F       		.uleb128 0xf
 1072 0172 84000000 		.4byte	.LASF16
 1073 0176 01       		.byte	0x1
 1074 0177 78       		.byte	0x78
 1075 0178 5E000000 		.4byte	0x5e
 1076 017c 02       		.byte	0x2
 1077 017d 91       		.byte	0x91
 1078 017e 54       		.sleb128 -44
 1079 017f 10       		.uleb128 0x10
 1080 0180 D9000000 		.4byte	.LASF17
 1081 0184 01       		.byte	0x1
 1082 0185 79       		.byte	0x79
ARM GAS  /cygdrive/c/DOCUME~1/mkwapisz/LOCALS~1/Temp/ccrRMyZd.s 			page 24


 1083 0186 5E000000 		.4byte	0x5e
 1084 018a 91010000 		.4byte	.LLST10
 1085 018e 10       		.uleb128 0x10
 1086 018f 41000000 		.4byte	.LASF18
 1087 0193 01       		.byte	0x1
 1088 0194 7A       		.byte	0x7a
 1089 0195 5E000000 		.4byte	0x5e
 1090 0199 AF010000 		.4byte	.LLST11
 1091 019d 0B       		.uleb128 0xb
 1092 019e 6900     		.ascii	"i\000"
 1093 01a0 01       		.byte	0x1
 1094 01a1 8E       		.byte	0x8e
 1095 01a2 5E000000 		.4byte	0x5e
 1096 01a6 D8010000 		.4byte	.LLST12
 1097 01aa 11       		.uleb128 0x11
 1098 01ab F2000000 		.4byte	.LBB2
 1099 01af 38010000 		.4byte	.LBE2
 1100 01b3 0B       		.uleb128 0xb
 1101 01b4 6900     		.ascii	"i\000"
 1102 01b6 01       		.byte	0x1
 1103 01b7 83       		.byte	0x83
 1104 01b8 5E000000 		.4byte	0x5e
 1105 01bc EB010000 		.4byte	.LLST13
 1106 01c0 00       		.byte	0x0
 1107 01c1 00       		.byte	0x0
 1108 01c2 12       		.uleb128 0x12
 1109 01c3 D2010000 		.4byte	0x1d2
 1110 01c7 17010000 		.4byte	0x117
 1111 01cb 13       		.uleb128 0x13
 1112 01cc 65000000 		.4byte	0x65
 1113 01d0 13       		.byte	0x13
 1114 01d1 00       		.byte	0x0
 1115 01d2 14       		.uleb128 0x14
 1116 01d3 01       		.byte	0x1
 1117 01d4 34000000 		.4byte	.LASF19
 1118 01d8 01       		.byte	0x1
 1119 01d9 9B       		.byte	0x9b
 1120 01da 74010000 		.4byte	.LFB8
 1121 01de 86010000 		.4byte	.LFE8
 1122 01e2 FE010000 		.4byte	.LLST14
 1123 01e6 14       		.uleb128 0x14
 1124 01e7 01       		.byte	0x1
 1125 01e8 56000000 		.4byte	.LASF20
 1126 01ec 01       		.byte	0x1
 1127 01ed A1       		.byte	0xa1
 1128 01ee 88010000 		.4byte	.LFB9
 1129 01f2 9C010000 		.4byte	.LFE9
 1130 01f6 1D020000 		.4byte	.LLST15
 1131 01fa 15       		.uleb128 0x15
 1132 01fb BE000000 		.4byte	.LASF28
 1133 01ff 01       		.byte	0x1
 1134 0200 1F       		.byte	0x1f
 1135 0201 01       		.byte	0x1
 1136 0202 01       		.byte	0x1
 1137 0203 16       		.uleb128 0x16
 1138 0204 1C020000 		.4byte	0x21c
 1139 0208 0D000000 		.4byte	.LASF21
ARM GAS  /cygdrive/c/DOCUME~1/mkwapisz/LOCALS~1/Temp/ccrRMyZd.s 			page 25


 1140 020c 01       		.byte	0x1
 1141 020d 61       		.byte	0x61
 1142 020e 01       		.byte	0x1
 1143 020f 01       		.byte	0x1
 1144 0210 17       		.uleb128 0x17
 1145 0211 8C000000 		.4byte	.LASF22
 1146 0215 01       		.byte	0x1
 1147 0216 60       		.byte	0x60
 1148 0217 25000000 		.4byte	0x25
 1149 021b 00       		.byte	0x0
 1150 021c 0C       		.uleb128 0xc
 1151 021d 52020000 		.4byte	0x252
 1152 0221 01       		.byte	0x1
 1153 0222 1A000000 		.4byte	.LASF23
 1154 0226 01       		.byte	0x1
 1155 0227 AE       		.byte	0xae
 1156 0228 01       		.byte	0x1
 1157 0229 9C010000 		.4byte	.LFB10
 1158 022d 80020000 		.4byte	.LFE10
 1159 0231 3C020000 		.4byte	.LLST16
 1160 0235 18       		.uleb128 0x18
 1161 0236 FA010000 		.4byte	0x1fa
 1162 023a 00000000 		.4byte	.Ldebug_ranges0+0x0
 1163 023e 01       		.byte	0x1
 1164 023f B0       		.byte	0xb0
 1165 0240 19       		.uleb128 0x19
 1166 0241 03020000 		.4byte	0x203
 1167 0245 18000000 		.4byte	.Ldebug_ranges0+0x18
 1168 0249 01       		.byte	0x1
 1169 024a B3       		.byte	0xb3
 1170 024b 1A       		.uleb128 0x1a
 1171 024c 10020000 		.4byte	0x210
 1172 0250 00       		.byte	0x0
 1173 0251 00       		.byte	0x0
 1174 0252 1B       		.uleb128 0x1b
 1175 0253 B5000000 		.4byte	.LASF24
 1176 0257 01       		.byte	0x1
 1177 0258 15       		.byte	0x15
 1178 0259 5E000000 		.4byte	0x5e
 1179 025d 01       		.byte	0x1
 1180 025e 01       		.byte	0x1
 1181 025f 00       		.byte	0x0
 1182              		.section	.debug_abbrev
 1183 0000 01       		.uleb128 0x1
 1184 0001 11       		.uleb128 0x11
 1185 0002 01       		.byte	0x1
 1186 0003 10       		.uleb128 0x10
 1187 0004 06       		.uleb128 0x6
 1188 0005 12       		.uleb128 0x12
 1189 0006 01       		.uleb128 0x1
 1190 0007 11       		.uleb128 0x11
 1191 0008 01       		.uleb128 0x1
 1192 0009 25       		.uleb128 0x25
 1193 000a 0E       		.uleb128 0xe
 1194 000b 13       		.uleb128 0x13
 1195 000c 0B       		.uleb128 0xb
 1196 000d 03       		.uleb128 0x3
ARM GAS  /cygdrive/c/DOCUME~1/mkwapisz/LOCALS~1/Temp/ccrRMyZd.s 			page 26


 1197 000e 0E       		.uleb128 0xe
 1198 000f 1B       		.uleb128 0x1b
 1199 0010 0E       		.uleb128 0xe
 1200 0011 00       		.byte	0x0
 1201 0012 00       		.byte	0x0
 1202 0013 02       		.uleb128 0x2
 1203 0014 16       		.uleb128 0x16
 1204 0015 00       		.byte	0x0
 1205 0016 03       		.uleb128 0x3
 1206 0017 08       		.uleb128 0x8
 1207 0018 3A       		.uleb128 0x3a
 1208 0019 0B       		.uleb128 0xb
 1209 001a 3B       		.uleb128 0x3b
 1210 001b 0B       		.uleb128 0xb
 1211 001c 49       		.uleb128 0x49
 1212 001d 13       		.uleb128 0x13
 1213 001e 00       		.byte	0x0
 1214 001f 00       		.byte	0x0
 1215 0020 03       		.uleb128 0x3
 1216 0021 24       		.uleb128 0x24
 1217 0022 00       		.byte	0x0
 1218 0023 03       		.uleb128 0x3
 1219 0024 0E       		.uleb128 0xe
 1220 0025 0B       		.uleb128 0xb
 1221 0026 0B       		.uleb128 0xb
 1222 0027 3E       		.uleb128 0x3e
 1223 0028 0B       		.uleb128 0xb
 1224 0029 00       		.byte	0x0
 1225 002a 00       		.byte	0x0
 1226 002b 04       		.uleb128 0x4
 1227 002c 16       		.uleb128 0x16
 1228 002d 00       		.byte	0x0
 1229 002e 03       		.uleb128 0x3
 1230 002f 0E       		.uleb128 0xe
 1231 0030 3A       		.uleb128 0x3a
 1232 0031 0B       		.uleb128 0xb
 1233 0032 3B       		.uleb128 0x3b
 1234 0033 0B       		.uleb128 0xb
 1235 0034 49       		.uleb128 0x49
 1236 0035 13       		.uleb128 0x13
 1237 0036 00       		.byte	0x0
 1238 0037 00       		.byte	0x0
 1239 0038 05       		.uleb128 0x5
 1240 0039 24       		.uleb128 0x24
 1241 003a 00       		.byte	0x0
 1242 003b 03       		.uleb128 0x3
 1243 003c 08       		.uleb128 0x8
 1244 003d 0B       		.uleb128 0xb
 1245 003e 0B       		.uleb128 0xb
 1246 003f 3E       		.uleb128 0x3e
 1247 0040 0B       		.uleb128 0xb
 1248 0041 00       		.byte	0x0
 1249 0042 00       		.byte	0x0
 1250 0043 06       		.uleb128 0x6
 1251 0044 2E       		.uleb128 0x2e
 1252 0045 01       		.byte	0x1
 1253 0046 01       		.uleb128 0x1
ARM GAS  /cygdrive/c/DOCUME~1/mkwapisz/LOCALS~1/Temp/ccrRMyZd.s 			page 27


 1254 0047 13       		.uleb128 0x13
 1255 0048 03       		.uleb128 0x3
 1256 0049 0E       		.uleb128 0xe
 1257 004a 3A       		.uleb128 0x3a
 1258 004b 0B       		.uleb128 0xb
 1259 004c 3B       		.uleb128 0x3b
 1260 004d 0B       		.uleb128 0xb
 1261 004e 27       		.uleb128 0x27
 1262 004f 0C       		.uleb128 0xc
 1263 0050 11       		.uleb128 0x11
 1264 0051 01       		.uleb128 0x1
 1265 0052 12       		.uleb128 0x12
 1266 0053 01       		.uleb128 0x1
 1267 0054 40       		.uleb128 0x40
 1268 0055 06       		.uleb128 0x6
 1269 0056 00       		.byte	0x0
 1270 0057 00       		.byte	0x0
 1271 0058 07       		.uleb128 0x7
 1272 0059 34       		.uleb128 0x34
 1273 005a 00       		.byte	0x0
 1274 005b 03       		.uleb128 0x3
 1275 005c 08       		.uleb128 0x8
 1276 005d 3A       		.uleb128 0x3a
 1277 005e 0B       		.uleb128 0xb
 1278 005f 3B       		.uleb128 0x3b
 1279 0060 0B       		.uleb128 0xb
 1280 0061 49       		.uleb128 0x49
 1281 0062 13       		.uleb128 0x13
 1282 0063 02       		.uleb128 0x2
 1283 0064 0A       		.uleb128 0xa
 1284 0065 00       		.byte	0x0
 1285 0066 00       		.byte	0x0
 1286 0067 08       		.uleb128 0x8
 1287 0068 35       		.uleb128 0x35
 1288 0069 00       		.byte	0x0
 1289 006a 49       		.uleb128 0x49
 1290 006b 13       		.uleb128 0x13
 1291 006c 00       		.byte	0x0
 1292 006d 00       		.byte	0x0
 1293 006e 09       		.uleb128 0x9
 1294 006f 05       		.uleb128 0x5
 1295 0070 00       		.byte	0x0
 1296 0071 03       		.uleb128 0x3
 1297 0072 08       		.uleb128 0x8
 1298 0073 3A       		.uleb128 0x3a
 1299 0074 0B       		.uleb128 0xb
 1300 0075 3B       		.uleb128 0x3b
 1301 0076 0B       		.uleb128 0xb
 1302 0077 49       		.uleb128 0x49
 1303 0078 13       		.uleb128 0x13
 1304 0079 02       		.uleb128 0x2
 1305 007a 06       		.uleb128 0x6
 1306 007b 00       		.byte	0x0
 1307 007c 00       		.byte	0x0
 1308 007d 0A       		.uleb128 0xa
 1309 007e 05       		.uleb128 0x5
 1310 007f 00       		.byte	0x0
ARM GAS  /cygdrive/c/DOCUME~1/mkwapisz/LOCALS~1/Temp/ccrRMyZd.s 			page 28


 1311 0080 03       		.uleb128 0x3
 1312 0081 0E       		.uleb128 0xe
 1313 0082 3A       		.uleb128 0x3a
 1314 0083 0B       		.uleb128 0xb
 1315 0084 3B       		.uleb128 0x3b
 1316 0085 0B       		.uleb128 0xb
 1317 0086 49       		.uleb128 0x49
 1318 0087 13       		.uleb128 0x13
 1319 0088 02       		.uleb128 0x2
 1320 0089 06       		.uleb128 0x6
 1321 008a 00       		.byte	0x0
 1322 008b 00       		.byte	0x0
 1323 008c 0B       		.uleb128 0xb
 1324 008d 34       		.uleb128 0x34
 1325 008e 00       		.byte	0x0
 1326 008f 03       		.uleb128 0x3
 1327 0090 08       		.uleb128 0x8
 1328 0091 3A       		.uleb128 0x3a
 1329 0092 0B       		.uleb128 0xb
 1330 0093 3B       		.uleb128 0x3b
 1331 0094 0B       		.uleb128 0xb
 1332 0095 49       		.uleb128 0x49
 1333 0096 13       		.uleb128 0x13
 1334 0097 02       		.uleb128 0x2
 1335 0098 06       		.uleb128 0x6
 1336 0099 00       		.byte	0x0
 1337 009a 00       		.byte	0x0
 1338 009b 0C       		.uleb128 0xc
 1339 009c 2E       		.uleb128 0x2e
 1340 009d 01       		.byte	0x1
 1341 009e 01       		.uleb128 0x1
 1342 009f 13       		.uleb128 0x13
 1343 00a0 3F       		.uleb128 0x3f
 1344 00a1 0C       		.uleb128 0xc
 1345 00a2 03       		.uleb128 0x3
 1346 00a3 0E       		.uleb128 0xe
 1347 00a4 3A       		.uleb128 0x3a
 1348 00a5 0B       		.uleb128 0xb
 1349 00a6 3B       		.uleb128 0x3b
 1350 00a7 0B       		.uleb128 0xb
 1351 00a8 27       		.uleb128 0x27
 1352 00a9 0C       		.uleb128 0xc
 1353 00aa 11       		.uleb128 0x11
 1354 00ab 01       		.uleb128 0x1
 1355 00ac 12       		.uleb128 0x12
 1356 00ad 01       		.uleb128 0x1
 1357 00ae 40       		.uleb128 0x40
 1358 00af 06       		.uleb128 0x6
 1359 00b0 00       		.byte	0x0
 1360 00b1 00       		.byte	0x0
 1361 00b2 0D       		.uleb128 0xd
 1362 00b3 34       		.uleb128 0x34
 1363 00b4 00       		.byte	0x0
 1364 00b5 03       		.uleb128 0x3
 1365 00b6 08       		.uleb128 0x8
 1366 00b7 3A       		.uleb128 0x3a
 1367 00b8 0B       		.uleb128 0xb
ARM GAS  /cygdrive/c/DOCUME~1/mkwapisz/LOCALS~1/Temp/ccrRMyZd.s 			page 29


 1368 00b9 3B       		.uleb128 0x3b
 1369 00ba 0B       		.uleb128 0xb
 1370 00bb 49       		.uleb128 0x49
 1371 00bc 13       		.uleb128 0x13
 1372 00bd 00       		.byte	0x0
 1373 00be 00       		.byte	0x0
 1374 00bf 0E       		.uleb128 0xe
 1375 00c0 0F       		.uleb128 0xf
 1376 00c1 00       		.byte	0x0
 1377 00c2 0B       		.uleb128 0xb
 1378 00c3 0B       		.uleb128 0xb
 1379 00c4 49       		.uleb128 0x49
 1380 00c5 13       		.uleb128 0x13
 1381 00c6 00       		.byte	0x0
 1382 00c7 00       		.byte	0x0
 1383 00c8 0F       		.uleb128 0xf
 1384 00c9 34       		.uleb128 0x34
 1385 00ca 00       		.byte	0x0
 1386 00cb 03       		.uleb128 0x3
 1387 00cc 0E       		.uleb128 0xe
 1388 00cd 3A       		.uleb128 0x3a
 1389 00ce 0B       		.uleb128 0xb
 1390 00cf 3B       		.uleb128 0x3b
 1391 00d0 0B       		.uleb128 0xb
 1392 00d1 49       		.uleb128 0x49
 1393 00d2 13       		.uleb128 0x13
 1394 00d3 02       		.uleb128 0x2
 1395 00d4 0A       		.uleb128 0xa
 1396 00d5 00       		.byte	0x0
 1397 00d6 00       		.byte	0x0
 1398 00d7 10       		.uleb128 0x10
 1399 00d8 34       		.uleb128 0x34
 1400 00d9 00       		.byte	0x0
 1401 00da 03       		.uleb128 0x3
 1402 00db 0E       		.uleb128 0xe
 1403 00dc 3A       		.uleb128 0x3a
 1404 00dd 0B       		.uleb128 0xb
 1405 00de 3B       		.uleb128 0x3b
 1406 00df 0B       		.uleb128 0xb
 1407 00e0 49       		.uleb128 0x49
 1408 00e1 13       		.uleb128 0x13
 1409 00e2 02       		.uleb128 0x2
 1410 00e3 06       		.uleb128 0x6
 1411 00e4 00       		.byte	0x0
 1412 00e5 00       		.byte	0x0
 1413 00e6 11       		.uleb128 0x11
 1414 00e7 0B       		.uleb128 0xb
 1415 00e8 01       		.byte	0x1
 1416 00e9 11       		.uleb128 0x11
 1417 00ea 01       		.uleb128 0x1
 1418 00eb 12       		.uleb128 0x12
 1419 00ec 01       		.uleb128 0x1
 1420 00ed 00       		.byte	0x0
 1421 00ee 00       		.byte	0x0
 1422 00ef 12       		.uleb128 0x12
 1423 00f0 01       		.uleb128 0x1
 1424 00f1 01       		.byte	0x1
ARM GAS  /cygdrive/c/DOCUME~1/mkwapisz/LOCALS~1/Temp/ccrRMyZd.s 			page 30


 1425 00f2 01       		.uleb128 0x1
 1426 00f3 13       		.uleb128 0x13
 1427 00f4 49       		.uleb128 0x49
 1428 00f5 13       		.uleb128 0x13
 1429 00f6 00       		.byte	0x0
 1430 00f7 00       		.byte	0x0
 1431 00f8 13       		.uleb128 0x13
 1432 00f9 21       		.uleb128 0x21
 1433 00fa 00       		.byte	0x0
 1434 00fb 49       		.uleb128 0x49
 1435 00fc 13       		.uleb128 0x13
 1436 00fd 2F       		.uleb128 0x2f
 1437 00fe 0B       		.uleb128 0xb
 1438 00ff 00       		.byte	0x0
 1439 0100 00       		.byte	0x0
 1440 0101 14       		.uleb128 0x14
 1441 0102 2E       		.uleb128 0x2e
 1442 0103 00       		.byte	0x0
 1443 0104 3F       		.uleb128 0x3f
 1444 0105 0C       		.uleb128 0xc
 1445 0106 03       		.uleb128 0x3
 1446 0107 0E       		.uleb128 0xe
 1447 0108 3A       		.uleb128 0x3a
 1448 0109 0B       		.uleb128 0xb
 1449 010a 3B       		.uleb128 0x3b
 1450 010b 0B       		.uleb128 0xb
 1451 010c 11       		.uleb128 0x11
 1452 010d 01       		.uleb128 0x1
 1453 010e 12       		.uleb128 0x12
 1454 010f 01       		.uleb128 0x1
 1455 0110 40       		.uleb128 0x40
 1456 0111 06       		.uleb128 0x6
 1457 0112 00       		.byte	0x0
 1458 0113 00       		.byte	0x0
 1459 0114 15       		.uleb128 0x15
 1460 0115 2E       		.uleb128 0x2e
 1461 0116 00       		.byte	0x0
 1462 0117 03       		.uleb128 0x3
 1463 0118 0E       		.uleb128 0xe
 1464 0119 3A       		.uleb128 0x3a
 1465 011a 0B       		.uleb128 0xb
 1466 011b 3B       		.uleb128 0x3b
 1467 011c 0B       		.uleb128 0xb
 1468 011d 27       		.uleb128 0x27
 1469 011e 0C       		.uleb128 0xc
 1470 011f 20       		.uleb128 0x20
 1471 0120 0B       		.uleb128 0xb
 1472 0121 00       		.byte	0x0
 1473 0122 00       		.byte	0x0
 1474 0123 16       		.uleb128 0x16
 1475 0124 2E       		.uleb128 0x2e
 1476 0125 01       		.byte	0x1
 1477 0126 01       		.uleb128 0x1
 1478 0127 13       		.uleb128 0x13
 1479 0128 03       		.uleb128 0x3
 1480 0129 0E       		.uleb128 0xe
 1481 012a 3A       		.uleb128 0x3a
ARM GAS  /cygdrive/c/DOCUME~1/mkwapisz/LOCALS~1/Temp/ccrRMyZd.s 			page 31


 1482 012b 0B       		.uleb128 0xb
 1483 012c 3B       		.uleb128 0x3b
 1484 012d 0B       		.uleb128 0xb
 1485 012e 27       		.uleb128 0x27
 1486 012f 0C       		.uleb128 0xc
 1487 0130 20       		.uleb128 0x20
 1488 0131 0B       		.uleb128 0xb
 1489 0132 00       		.byte	0x0
 1490 0133 00       		.byte	0x0
 1491 0134 17       		.uleb128 0x17
 1492 0135 05       		.uleb128 0x5
 1493 0136 00       		.byte	0x0
 1494 0137 03       		.uleb128 0x3
 1495 0138 0E       		.uleb128 0xe
 1496 0139 3A       		.uleb128 0x3a
 1497 013a 0B       		.uleb128 0xb
 1498 013b 3B       		.uleb128 0x3b
 1499 013c 0B       		.uleb128 0xb
 1500 013d 49       		.uleb128 0x49
 1501 013e 13       		.uleb128 0x13
 1502 013f 00       		.byte	0x0
 1503 0140 00       		.byte	0x0
 1504 0141 18       		.uleb128 0x18
 1505 0142 1D       		.uleb128 0x1d
 1506 0143 00       		.byte	0x0
 1507 0144 31       		.uleb128 0x31
 1508 0145 13       		.uleb128 0x13
 1509 0146 55       		.uleb128 0x55
 1510 0147 06       		.uleb128 0x6
 1511 0148 58       		.uleb128 0x58
 1512 0149 0B       		.uleb128 0xb
 1513 014a 59       		.uleb128 0x59
 1514 014b 0B       		.uleb128 0xb
 1515 014c 00       		.byte	0x0
 1516 014d 00       		.byte	0x0
 1517 014e 19       		.uleb128 0x19
 1518 014f 1D       		.uleb128 0x1d
 1519 0150 01       		.byte	0x1
 1520 0151 31       		.uleb128 0x31
 1521 0152 13       		.uleb128 0x13
 1522 0153 55       		.uleb128 0x55
 1523 0154 06       		.uleb128 0x6
 1524 0155 58       		.uleb128 0x58
 1525 0156 0B       		.uleb128 0xb
 1526 0157 59       		.uleb128 0x59
 1527 0158 0B       		.uleb128 0xb
 1528 0159 00       		.byte	0x0
 1529 015a 00       		.byte	0x0
 1530 015b 1A       		.uleb128 0x1a
 1531 015c 05       		.uleb128 0x5
 1532 015d 00       		.byte	0x0
 1533 015e 31       		.uleb128 0x31
 1534 015f 13       		.uleb128 0x13
 1535 0160 00       		.byte	0x0
 1536 0161 00       		.byte	0x0
 1537 0162 1B       		.uleb128 0x1b
 1538 0163 34       		.uleb128 0x34
ARM GAS  /cygdrive/c/DOCUME~1/mkwapisz/LOCALS~1/Temp/ccrRMyZd.s 			page 32


 1539 0164 00       		.byte	0x0
 1540 0165 03       		.uleb128 0x3
 1541 0166 0E       		.uleb128 0xe
 1542 0167 3A       		.uleb128 0x3a
 1543 0168 0B       		.uleb128 0xb
 1544 0169 3B       		.uleb128 0x3b
 1545 016a 0B       		.uleb128 0xb
 1546 016b 49       		.uleb128 0x49
 1547 016c 13       		.uleb128 0x13
 1548 016d 3F       		.uleb128 0x3f
 1549 016e 0C       		.uleb128 0xc
 1550 016f 3C       		.uleb128 0x3c
 1551 0170 0C       		.uleb128 0xc
 1552 0171 00       		.byte	0x0
 1553 0172 00       		.byte	0x0
 1554 0173 00       		.byte	0x0
 1555              		.section	.debug_pubnames,"",%progbits
 1556 0000 55000000 		.4byte	0x55
 1557 0004 0200     		.2byte	0x2
 1558 0006 00000000 		.4byte	.Ldebug_info0
 1559 000a 60020000 		.4byte	0x260
 1560 000e DF000000 		.4byte	0xdf
 1561 0012 77726974 		.ascii	"writeString\000"
 1561      65537472 
 1561      696E6700 
 1562 001e 1E010000 		.4byte	0x11e
 1563 0022 77726974 		.ascii	"writeInt\000"
 1563      65496E74 
 1563      00
 1564 002b D2010000 		.4byte	0x1d2
 1565 002f 77726974 		.ascii	"writeNewLine\000"
 1565      654E6577 
 1565      4C696E65 
 1565      00
 1566 003c E6010000 		.4byte	0x1e6
 1567 0040 636C6561 		.ascii	"clearLCD\000"
 1567      724C4344 
 1567      00
 1568 0049 1C020000 		.4byte	0x21c
 1569 004d 74657374 		.ascii	"testLcd\000"
 1569      4C636400 
 1570 0055 00000000 		.4byte	0x0
 1571              		.section	.debug_aranges,"",%progbits
 1572 0000 1C000000 		.4byte	0x1c
 1573 0004 0200     		.2byte	0x2
 1574 0006 00000000 		.4byte	.Ldebug_info0
 1575 000a 04       		.byte	0x4
 1576 000b 00       		.byte	0x0
 1577 000c 0000     		.2byte	0x0
 1578 000e 0000     		.2byte	0x0
 1579 0010 00000000 		.4byte	.Ltext0
 1580 0014 80020000 		.4byte	.Letext0-.Ltext0
 1581 0018 00000000 		.4byte	0x0
 1582 001c 00000000 		.4byte	0x0
 1583              		.section	.debug_ranges,"",%progbits
 1584              	.Ldebug_ranges0:
 1585 0000 A4010000 		.4byte	.LBB7-.Ltext0
ARM GAS  /cygdrive/c/DOCUME~1/mkwapisz/LOCALS~1/Temp/ccrRMyZd.s 			page 33


 1586 0004 CC010000 		.4byte	.LBE7-.Ltext0
 1587 0008 CE010000 		.4byte	.LBB11-.Ltext0
 1588 000c D0010000 		.4byte	.LBE11-.Ltext0
 1589 0010 00000000 		.4byte	0x0
 1590 0014 00000000 		.4byte	0x0
 1591 0018 CC010000 		.4byte	.LBB9-.Ltext0
 1592 001c CE010000 		.4byte	.LBE9-.Ltext0
 1593 0020 D0010000 		.4byte	.LBB13-.Ltext0
 1594 0024 D2010000 		.4byte	.LBE13-.Ltext0
 1595 0028 00000000 		.4byte	0x0
 1596 002c 00000000 		.4byte	0x0
 1597              		.section	.debug_str,"MS",%progbits,1
 1598              	.LASF10:
 1599 0000 63617074 		.ascii	"caption\000"
 1599      696F6E00 
 1600              	.LASF9:
 1601 0008 64617461 		.ascii	"data\000"
 1601      00
 1602              	.LASF21:
 1603 000d 6C636442 		.ascii	"lcdBacklight\000"
 1603      61636B6C 
 1603      69676874 
 1603      00
 1604              	.LASF23:
 1605 001a 74657374 		.ascii	"testLcd\000"
 1605      4C636400 
 1606              	.LASF8:
 1607 0022 77726974 		.ascii	"writeLCD\000"
 1607      654C4344 
 1607      00
 1608              	.LASF13:
 1609 002b 77726974 		.ascii	"writeInt\000"
 1609      65496E74 
 1609      00
 1610              	.LASF19:
 1611 0034 77726974 		.ascii	"writeNewLine\000"
 1611      654E6577 
 1611      4C696E65 
 1611      00
 1612              	.LASF18:
 1613 0041 6D6F6475 		.ascii	"modulo\000"
 1613      6C6F00
 1614              	.LASF0:
 1615 0048 756E7369 		.ascii	"unsigned char\000"
 1615      676E6564 
 1615      20636861 
 1615      7200
 1616              	.LASF20:
 1617 0056 636C6561 		.ascii	"clearLCD\000"
 1617      724C4344 
 1617      00
 1618              	.LASF6:
 1619 005f 6C6F6E67 		.ascii	"long unsigned int\000"
 1619      20756E73 
 1619      69676E65 
 1619      6420696E 
 1619      7400
ARM GAS  /cygdrive/c/DOCUME~1/mkwapisz/LOCALS~1/Temp/ccrRMyZd.s 			page 34


 1620              	.LASF1:
 1621 0071 73686F72 		.ascii	"short unsigned int\000"
 1621      7420756E 
 1621      7369676E 
 1621      65642069 
 1621      6E7400
 1622              	.LASF16:
 1623 0084 636F756E 		.ascii	"counter\000"
 1623      74657200 
 1624              	.LASF22:
 1625 008c 6F6E4F66 		.ascii	"onOff\000"
 1625      6600
 1626              	.LASF12:
 1627 0092 77726974 		.ascii	"writeString\000"
 1627      65537472 
 1627      696E6700 
 1628              	.LASF3:
 1629 009e 756E7369 		.ascii	"unsigned int\000"
 1629      676E6564 
 1629      20696E74 
 1629      00
 1630              	.LASF7:
 1631 00ab 64656C61 		.ascii	"delay37us\000"
 1631      79333775 
 1631      7300
 1632              	.LASF24:
 1633 00b5 74696D65 		.ascii	"timerCnt\000"
 1633      72436E74 
 1633      00
 1634              	.LASF28:
 1635 00be 696E6974 		.ascii	"initLCD\000"
 1635      4C434400 
 1636              	.LASF14:
 1637 00c6 6E756D62 		.ascii	"number\000"
 1637      657200
 1638              	.LASF25:
 1639 00cd 474E5520 		.ascii	"GNU C 4.1.1\000"
 1639      4320342E 
 1639      312E3100 
 1640              	.LASF17:
 1641 00d9 70726576 		.ascii	"prevModulo\000"
 1641      4D6F6475 
 1641      6C6F00
 1642              	.LASF2:
 1643 00e4 74553332 		.ascii	"tU32\000"
 1643      00
 1644              	.LASF11:
 1645 00e9 63686172 		.ascii	"char\000"
 1645      00
 1646              	.LASF26:
 1647 00ee 74657374 		.ascii	"testLcd.c\000"
 1647      4C63642E 
 1647      6300
 1648              	.LASF5:
 1649 00f8 73686F72 		.ascii	"short int\000"
 1649      7420696E 
 1649      7400
ARM GAS  /cygdrive/c/DOCUME~1/mkwapisz/LOCALS~1/Temp/ccrRMyZd.s 			page 35


 1650              	.LASF27:
 1651 0102 2F637967 		.ascii	"/cygdrive/c/Embedded/eclipse/Demo/2138\000"
 1651      64726976 
 1651      652F632F 
 1651      456D6265 
 1651      64646564 
 1652              	.LASF15:
 1653 0129 64697669 		.ascii	"divisor\000"
 1653      736F7200 
 1654              	.LASF4:
 1655 0131 7369676E 		.ascii	"signed char\000"
 1655      65642063 
 1655      68617200 
 1656              		.ident	"GCC: (GNU) 4.1.1"
ARM GAS  /cygdrive/c/DOCUME~1/mkwapisz/LOCALS~1/Temp/ccrRMyZd.s 			page 36


DEFINED SYMBOLS
                            *ABS*:00000000 testLcd.c
/cygdrive/c/DOCUME~1/mkwapisz/LOCALS~1/Temp/ccrRMyZd.s:1      .text:00000000 $t
/cygdrive/c/DOCUME~1/mkwapisz/LOCALS~1/Temp/ccrRMyZd.s:15     .text:00000000 delay37us
/cygdrive/c/DOCUME~1/mkwapisz/LOCALS~1/Temp/ccrRMyZd.s:47     .text:0000001c $d
/cygdrive/c/DOCUME~1/mkwapisz/LOCALS~1/Temp/ccrRMyZd.s:51     .text:00000020 $t
/cygdrive/c/DOCUME~1/mkwapisz/LOCALS~1/Temp/ccrRMyZd.s:54     .text:00000020 writeLCD
/cygdrive/c/DOCUME~1/mkwapisz/LOCALS~1/Temp/ccrRMyZd.s:167    .text:000000a4 $d
/cygdrive/c/DOCUME~1/mkwapisz/LOCALS~1/Temp/ccrRMyZd.s:177    .text:000000b0 writeString
/cygdrive/c/DOCUME~1/mkwapisz/LOCALS~1/Temp/ccrRMyZd.s:174    .text:000000b0 $t
/cygdrive/c/DOCUME~1/mkwapisz/LOCALS~1/Temp/ccrRMyZd.s:214    .text:000000d0 writeInt
/cygdrive/c/DOCUME~1/mkwapisz/LOCALS~1/Temp/ccrRMyZd.s:353    .text:00000174 writeNewLine
/cygdrive/c/DOCUME~1/mkwapisz/LOCALS~1/Temp/ccrRMyZd.s:375    .text:00000188 clearLCD
/cygdrive/c/DOCUME~1/mkwapisz/LOCALS~1/Temp/ccrRMyZd.s:403    .text:0000019c testLcd
/cygdrive/c/DOCUME~1/mkwapisz/LOCALS~1/Temp/ccrRMyZd.s:535    .text:00000260 $d

UNDEFINED SYMBOLS
__modsi3
__divsi3
osSleep
simplePrintf
timerCnt
