ARM GAS  /cygdrive/c/DOCUME~1/mkwapisz/LOCALS~1/Temp/cce8X8VJ.s 			page 1


   1              		.code	16
   2              		.file	"testLedMatrix.c"
   3              		.section	.debug_abbrev,"",%progbits
   4              	.Ldebug_abbrev0:
   5              		.section	.debug_info,"",%progbits
   6              	.Ldebug_info0:
   7              		.section	.debug_line,"",%progbits
   8              	.Ldebug_line0:
   9 0000 0C010000 		.text
   9      02005A00 
   9      00000201 
   9      FB0E0D00 
   9      01010101 
  10              	.Ltext0:
  11              		.align	2
  12              		.global	initTimer1
  13              		.code 16
  14              		.thumb_func
  15              		.type	initTimer1, %function
  16              	initTimer1:
  17              	.LFB3:
  18              		.file 1 "testLedMatrix.c"
   1:testLedMatrix.c **** /******************************************************************************
   2:testLedMatrix.c ****  *
   3:testLedMatrix.c ****  * Copyright:
   4:testLedMatrix.c ****  *    (C) 2000 - 2005 Embedded Artists AB
   5:testLedMatrix.c ****  *
   6:testLedMatrix.c ****  *****************************************************************************/
   7:testLedMatrix.c **** 
   8:testLedMatrix.c **** 
   9:testLedMatrix.c **** #include "../pre_emptive_os/api/osapi.h"
  10:testLedMatrix.c **** #include "../pre_emptive_os/api/general.h"
  11:testLedMatrix.c **** #include <printf_P.h>
  12:testLedMatrix.c **** #include <lpc2xxx.h>
  13:testLedMatrix.c **** #include <consol.h>
  14:testLedMatrix.c **** #include <config.h>
  15:testLedMatrix.c **** #include <stdlib.h>
  16:testLedMatrix.c **** 
  17:testLedMatrix.c **** /******************************************************************************
  18:testLedMatrix.c ****  * Defines and typedefs
  19:testLedMatrix.c ****  *****************************************************************************/
  20:testLedMatrix.c **** #define CRYSTAL_FREQUENCY FOSC
  21:testLedMatrix.c **** #define PLL_FACTOR        PLL_MUL
  22:testLedMatrix.c **** #define VPBDIV_FACTOR     PBSD
  23:testLedMatrix.c **** 
  24:testLedMatrix.c **** #define BUZZ 7 // buzzer define
  25:testLedMatrix.c **** 
  26:testLedMatrix.c **** #define  SPI_CS   0x00008000  //<= new board, old board = 0x00800000
  27:testLedMatrix.c **** 
  28:testLedMatrix.c **** const tU8 kolko[] = {0x3c,0x42,0x81,0x81,0x81,0x81,0x42,0x3c};
  29:testLedMatrix.c **** 
  30:testLedMatrix.c **** const tU8 krzyzyk[] = {0x81,0x42,0x24,0x18,0x18,0x24,0x42,0x81};
  31:testLedMatrix.c **** 
  32:testLedMatrix.c **** const tU8 krzyzyk2[] = {0xFF,0xFF,0xFF,0xFF,0xFF,0xFF,0xFF,0xFF};
  33:testLedMatrix.c **** 
  34:testLedMatrix.c **** 
  35:testLedMatrix.c **** const tU8 empty[] = {0x00,0x00,0x00,0x00,0x00,0x00,0x00,0x00};
ARM GAS  /cygdrive/c/DOCUME~1/mkwapisz/LOCALS~1/Temp/cce8X8VJ.s 			page 2


  36:testLedMatrix.c **** 
  37:testLedMatrix.c **** tU8 pattern[8] = {0,0,0,0,0,0,0,0};
  38:testLedMatrix.c **** 
  39:testLedMatrix.c **** int state = 0;
  40:testLedMatrix.c **** 
  41:testLedMatrix.c **** void ledMatrix(void);
  42:testLedMatrix.c **** 
  43:testLedMatrix.c **** 
  44:testLedMatrix.c **** /*****************************************************************************
  45:testLedMatrix.c ****  *
  46:testLedMatrix.c ****  * Description:
  47:testLedMatrix.c ****  *
  48:testLedMatrix.c ****  ****************************************************************************
  49:testLedMatrix.c **** */
  50:testLedMatrix.c **** 
  51:testLedMatrix.c **** #define MR1I (1<<0) // przerwijj kiedy TC = MR0
  52:testLedMatrix.c **** #define MR1R (1<<1)	// Resetuj TC kiedy TC = MR0
  53:testLedMatrix.c **** 
  54:testLedMatrix.c **** #define PLOCK 0x00000500
  55:testLedMatrix.c **** #define DELAY_MS 2 // 0.5 sceonds delay
  56:testLedMatrix.c **** #define PRESCALE 60000 // 60000 PCLK clokc cycles to increment5 TC by 1
  57:testLedMatrix.c **** 
  58:testLedMatrix.c **** void initClocks(void);
  59:testLedMatrix.c **** void initTimer1(void);
  60:testLedMatrix.c **** void T1ISR(void);
  61:testLedMatrix.c **** void setupPLL(void);
  62:testLedMatrix.c **** void feedSeq(void);
  63:testLedMatrix.c **** void connectPLL(void);
  64:testLedMatrix.c **** 
  65:testLedMatrix.c **** extern int timerCnt;
  66:testLedMatrix.c **** extern int lifes;
  67:testLedMatrix.c **** extern int showResult;
  68:testLedMatrix.c **** 
  69:testLedMatrix.c **** void timer(void)
  70:testLedMatrix.c **** {
  71:testLedMatrix.c **** 	initClocks();
  72:testLedMatrix.c **** 	initTimer1();
  73:testLedMatrix.c **** 
  74:testLedMatrix.c **** 	T1TCR= 0x01;
  75:testLedMatrix.c **** }
  76:testLedMatrix.c **** 
  77:testLedMatrix.c **** void initTimer1(void)
  78:testLedMatrix.c **** {
  19              		.loc 1 78 0
  79:testLedMatrix.c **** 	T1TCR = 0x0;
  20              		.loc 1 79 0
  21 0000 0F48     		ldr	r0, .L3
  22 0002 0023     		mov	r3, #0
  23 0004 0360     		str	r3, [r0]
  80:testLedMatrix.c **** 	T1PR = PRESCALE -1;
  24              		.loc 1 80 0
  25 0006 0F4A     		ldr	r2, .L3+4
  26 0008 0F4B     		ldr	r3, .L3+8
  27 000a 1A60     		str	r2, [r3]
  81:testLedMatrix.c **** 	T1MR0 = DELAY_MS-1;
  28              		.loc 1 81 0
  29 000c 0122     		mov	r2, #1
ARM GAS  /cygdrive/c/DOCUME~1/mkwapisz/LOCALS~1/Temp/cce8X8VJ.s 			page 3


  30 000e 0C33     		add	r3, r3, #12
  31 0010 1A60     		str	r2, [r3]
  82:testLedMatrix.c **** 	T1MCR = MR1I | MR1R;
  32              		.loc 1 82 0
  33 0012 0322     		mov	r2, #3
  34 0014 043B     		sub	r3, r3, #4
  35 0016 1A60     		str	r2, [r3]
  83:testLedMatrix.c **** 	T1IR  = 0x000000ff;
  36              		.loc 1 83 0
  37 0018 FF22     		mov	r2, #255
  38 001a 143B     		sub	r3, r3, #20
  39 001c 1A60     		str	r2, [r3]
  84:testLedMatrix.c **** 	VICIntSelect &= ~0x20;
  40              		.loc 1 84 0
  41 001e 0B4A     		ldr	r2, .L3+12
  42 0020 1368     		ldr	r3, [r2]
  43 0022 2021     		mov	r1, #32
  44 0024 8B43     		bic	r3, r3, r1
  45 0026 1360     		str	r3, [r2]
  85:testLedMatrix.c **** 	VICVectAddr5 = (tU32) T1ISR;
  46              		.loc 1 85 0
  47 0028 094A     		ldr	r2, .L3+16
  48 002a 0A4B     		ldr	r3, .L3+20
  49 002c 1A60     		str	r2, [r3]
  86:testLedMatrix.c **** 
  87:testLedMatrix.c **** 	VICVectCntl5 = 0x20 | 5;
  50              		.loc 1 87 0
  51 002e 0A4B     		ldr	r3, .L3+24
  52 0030 2522     		mov	r2, #37
  53 0032 1A60     		str	r2, [r3]
  88:testLedMatrix.c **** 
  89:testLedMatrix.c **** 	VICIntEnable = 0x20;
  54              		.loc 1 89 0
  55 0034 094B     		ldr	r3, .L3+28
  56 0036 1960     		str	r1, [r3]
  90:testLedMatrix.c **** 	T1TCR = 0x02;
  57              		.loc 1 90 0
  58 0038 0223     		mov	r3, #2
  59              		.loc 1 78 0
  60              		@ lr needed for prologue
  61              		.loc 1 90 0
  62 003a 0360     		str	r3, [r0]
  91:testLedMatrix.c **** }
  63              		.loc 1 91 0
  64              		@ sp needed for prologue
  65 003c 7047     		bx	lr
  66              	.L4:
  67 003e 0000     		.align	2
  68              	.L3:
  69 0040 048000E0 		.word	-536838140
  70 0044 5FEA0000 		.word	59999
  71 0048 0C8000E0 		.word	-536838132
  72 004c 0CF0FFFF 		.word	-4084
  73 0050 00000000 		.word	T1ISR
  74 0054 14F1FFFF 		.word	-3820
  75 0058 14F2FFFF 		.word	-3564
  76 005c 10F0FFFF 		.word	-4080
ARM GAS  /cygdrive/c/DOCUME~1/mkwapisz/LOCALS~1/Temp/cce8X8VJ.s 			page 4


  77              	.LFE3:
  78              		.size	initTimer1, .-initTimer1
  79              		.align	2
  80              		.global	setupPLL
  81              		.code 16
  82              		.thumb_func
  83              		.type	setupPLL, %function
  84              	setupPLL:
  85              	.LFB5:
  92:testLedMatrix.c **** 
  93:testLedMatrix.c **** void T1ISR()
  94:testLedMatrix.c **** {
  95:testLedMatrix.c **** 	long int regVal;
  96:testLedMatrix.c **** 	regVal = T1IR;
  97:testLedMatrix.c **** 	timerCnt += 1;
  98:testLedMatrix.c **** 	T1IR = regVal;
  99:testLedMatrix.c **** 	ledMatrix();
 100:testLedMatrix.c **** }
 101:testLedMatrix.c **** 
 102:testLedMatrix.c **** void setupPLL(void)
 103:testLedMatrix.c **** {
  86              		.loc 1 103 0
 104:testLedMatrix.c **** 	PLLCON = 0x01;
  87              		.loc 1 104 0
  88 0060 034B     		ldr	r3, .L7
  89 0062 0122     		mov	r2, #1
  90 0064 1A60     		str	r2, [r3]
 105:testLedMatrix.c **** 	PLLCFG = 0x24;
  91              		.loc 1 105 0
  92 0066 2422     		mov	r2, #36
  93 0068 0433     		add	r3, r3, #4
  94              		.loc 1 103 0
  95              		@ lr needed for prologue
  96              		.loc 1 105 0
  97 006a 1A60     		str	r2, [r3]
 106:testLedMatrix.c **** }
  98              		.loc 1 106 0
  99              		@ sp needed for prologue
 100 006c 7047     		bx	lr
 101              	.L8:
 102 006e 0000     		.align	2
 103              	.L7:
 104 0070 80C01FE0 		.word	-534790016
 105              	.LFE5:
 106              		.size	setupPLL, .-setupPLL
 107              		.align	2
 108              		.global	feedSeq
 109              		.code 16
 110              		.thumb_func
 111              		.type	feedSeq, %function
 112              	feedSeq:
 113              	.LFB6:
 107:testLedMatrix.c **** 
 108:testLedMatrix.c **** void feedSeq(void)
 109:testLedMatrix.c **** {
 114              		.loc 1 109 0
 110:testLedMatrix.c **** 	PLLFEED = 0xAA;
ARM GAS  /cygdrive/c/DOCUME~1/mkwapisz/LOCALS~1/Temp/cce8X8VJ.s 			page 5


 115              		.loc 1 110 0
 116 0074 024B     		ldr	r3, .L11
 117 0076 AA22     		mov	r2, #170
 118 0078 1A60     		str	r2, [r3]
 111:testLedMatrix.c **** 	PLLFEED = 0x55;
 119              		.loc 1 111 0
 120 007a 5522     		mov	r2, #85
 121              		.loc 1 109 0
 122              		@ lr needed for prologue
 123              		.loc 1 111 0
 124 007c 1A60     		str	r2, [r3]
 112:testLedMatrix.c **** }
 125              		.loc 1 112 0
 126              		@ sp needed for prologue
 127 007e 7047     		bx	lr
 128              	.L12:
 129              		.align	2
 130              	.L11:
 131 0080 8CC01FE0 		.word	-534790004
 132              	.LFE6:
 133              		.size	feedSeq, .-feedSeq
 134              		.align	2
 135              		.global	connectPLL
 136              		.code 16
 137              		.thumb_func
 138              		.type	connectPLL, %function
 139              	connectPLL:
 140              	.LFB7:
 113:testLedMatrix.c **** 
 114:testLedMatrix.c **** void connectPLL(void)
 115:testLedMatrix.c **** {
 141              		.loc 1 115 0
 142              		@ lr needed for prologue
 143              	.L15:
 116:testLedMatrix.c **** 	while(!(PLLSTAT & PLOCK));
 144              		.loc 1 116 0
 145 0084 044B     		ldr	r3, .L20
 146 0086 1A68     		ldr	r2, [r3]
 147 0088 A023     		mov	r3, #160
 148 008a DB00     		lsl	r3, r3, #3
 149 008c 1A42     		tst	r2, r3
 150 008e F9D0     		beq	.L15
 117:testLedMatrix.c **** 	PLLCON = 0x03;
 151              		.loc 1 117 0
 152 0090 024B     		ldr	r3, .L20+4
 153 0092 0322     		mov	r2, #3
 154 0094 1A60     		str	r2, [r3]
 118:testLedMatrix.c **** }
 155              		.loc 1 118 0
 156              		@ sp needed for prologue
 157 0096 7047     		bx	lr
 158              	.L21:
 159              		.align	2
 160              	.L20:
 161 0098 88C01FE0 		.word	-534790008
 162 009c 80C01FE0 		.word	-534790016
 163              	.LFE7:
ARM GAS  /cygdrive/c/DOCUME~1/mkwapisz/LOCALS~1/Temp/cce8X8VJ.s 			page 6


 164              		.size	connectPLL, .-connectPLL
 165              		.align	2
 166              		.global	initClocks
 167              		.code 16
 168              		.thumb_func
 169              		.type	initClocks, %function
 170              	initClocks:
 171              	.LFB8:
 119:testLedMatrix.c **** 
 120:testLedMatrix.c **** void initClocks(void)
 121:testLedMatrix.c **** {
 172              		.loc 1 121 0
 173              	.LBB10:
 174              	.LBB11:
 175              		.loc 1 104 0
 176 00a0 0E4B     		ldr	r3, .L28
 177 00a2 0122     		mov	r2, #1
 178 00a4 1A60     		str	r2, [r3]
 179              		.loc 1 105 0
 180 00a6 2422     		mov	r2, #36
 181 00a8 0433     		add	r3, r3, #4
 182 00aa 1A60     		str	r2, [r3]
 183              	.LBE11:
 184              	.LBE10:
 185              	.LBB12:
 186              	.LBB13:
 187              		.loc 1 110 0
 188 00ac 0C4A     		ldr	r2, .L28+4
 189 00ae AA23     		mov	r3, #170
 190 00b0 1360     		str	r3, [r2]
 191              		.loc 1 111 0
 192 00b2 5523     		mov	r3, #85
 193 00b4 1360     		str	r3, [r2]
 194              	.LBE13:
 195              	.LBE12:
 196              		.loc 1 121 0
 197              		@ lr needed for prologue
 198              	.L23:
 199              	.LBB14:
 200              	.LBB15:
 201              		.loc 1 116 0
 202 00b6 0B4B     		ldr	r3, .L28+8
 203 00b8 1A68     		ldr	r2, [r3]
 204 00ba A023     		mov	r3, #160
 205 00bc DB00     		lsl	r3, r3, #3
 206 00be 1A42     		tst	r2, r3
 207 00c0 F9D0     		beq	.L23
 208              		.loc 1 117 0
 209 00c2 064B     		ldr	r3, .L28
 210 00c4 0322     		mov	r2, #3
 211 00c6 1A60     		str	r2, [r3]
 212              	.LBE15:
 213              	.LBE14:
 214              	.LBB16:
 215              	.LBB17:
 216              		.loc 1 110 0
 217 00c8 054A     		ldr	r2, .L28+4
ARM GAS  /cygdrive/c/DOCUME~1/mkwapisz/LOCALS~1/Temp/cce8X8VJ.s 			page 7


 218 00ca AA23     		mov	r3, #170
 219 00cc 1360     		str	r3, [r2]
 220              		.loc 1 111 0
 221 00ce 5523     		mov	r3, #85
 222 00d0 1360     		str	r3, [r2]
 223              	.LBE17:
 224              	.LBE16:
 122:testLedMatrix.c **** 	setupPLL();
 123:testLedMatrix.c **** 	feedSeq();
 124:testLedMatrix.c **** 	connectPLL();
 125:testLedMatrix.c **** 	feedSeq();
 126:testLedMatrix.c **** 
 127:testLedMatrix.c **** 	VPBDIV = 0x01;
 225              		.loc 1 127 0
 226 00d2 054B     		ldr	r3, .L28+12
 227 00d4 0122     		mov	r2, #1
 228 00d6 1A60     		str	r2, [r3]
 128:testLedMatrix.c **** }
 229              		.loc 1 128 0
 230              		@ sp needed for prologue
 231 00d8 7047     		bx	lr
 232              	.L29:
 233 00da 0000     		.align	2
 234              	.L28:
 235 00dc 80C01FE0 		.word	-534790016
 236 00e0 8CC01FE0 		.word	-534790004
 237 00e4 88C01FE0 		.word	-534790008
 238 00e8 00C11FE0 		.word	-534789888
 239              	.LFE8:
 240              		.size	initClocks, .-initClocks
 241              		.align	2
 242              		.global	timer
 243              		.code 16
 244              		.thumb_func
 245              		.type	timer, %function
 246              	timer:
 247              	.LFB2:
 248              		.loc 1 70 0
 249 00ec 00B5     		push	{lr}
 250              	.LCFI0:
 251              		.loc 1 71 0
 252 00ee FFF7FEFF 		bl	initClocks
 253              		.loc 1 72 0
 254 00f2 FFF7FEFF 		bl	initTimer1
 255              		.loc 1 74 0
 256 00f6 024B     		ldr	r3, .L32
 257 00f8 0122     		mov	r2, #1
 258 00fa 1A60     		str	r2, [r3]
 259              		.loc 1 75 0
 260              		@ sp needed for prologue
 261 00fc 01BC     		pop	{r0}
 262 00fe 0047     		bx	r0
 263              	.L33:
 264              		.align	2
 265              	.L32:
 266 0100 048000E0 		.word	-536838140
 267              	.LFE2:
ARM GAS  /cygdrive/c/DOCUME~1/mkwapisz/LOCALS~1/Temp/cce8X8VJ.s 			page 8


 268              		.size	timer, .-timer
 269              		.global	__modsi3
 270              		.section	.rodata.str1.4,"aMS",%progbits,1
 271              		.align	2
 272              	.LC5:
 273 0000 25640A00 		.ascii	"%d\012\000"
 274              		.text
 275              		.align	2
 276              		.global	testLedMatrix
 277              		.code 16
 278              		.thumb_func
 279              		.type	testLedMatrix, %function
 280              	testLedMatrix:
 281              	.LFB9:
 129:testLedMatrix.c **** 
 130:testLedMatrix.c **** /*****************************************************************************
 131:testLedMatrix.c ****  *
 132:testLedMatrix.c ****  * Description:
 133:testLedMatrix.c ****  *    A process entry function 
 134:testLedMatrix.c ****  *
 135:testLedMatrix.c ****  ****************************************************************************/
 136:testLedMatrix.c **** void
 137:testLedMatrix.c **** testLedMatrix(void)
 138:testLedMatrix.c **** {
 282              		.loc 1 138 0
 283 0104 30B5     		push	{r4, r5, lr}
 284              	.LCFI1:
 139:testLedMatrix.c ****  	tU8 cntA = 0;
 140:testLedMatrix.c **** 
 141:testLedMatrix.c ****   PINSEL0 |= 0x00001500 ;  //Initiering av SPI
 285              		.loc 1 141 0
 286 0106 6249     		ldr	r1, .L66
 287 0108 A823     		mov	r3, #168
 288 010a 0A68     		ldr	r2, [r1]
 289 010c 5B01     		lsl	r3, r3, #5
 290 010e 1A43     		orr	r2, r2, r3
 142:testLedMatrix.c ****   SPI_SPCCR = 0x08;    
 291              		.loc 1 142 0
 292 0110 604B     		ldr	r3, .L66+4
 293              		.loc 1 141 0
 294 0112 0A60     		str	r2, [r1]
 295              		.loc 1 142 0
 296 0114 0822     		mov	r2, #8
 297 0116 1A60     		str	r2, [r3]
 143:testLedMatrix.c ****   SPI_SPCR  = 0x60;
 298              		.loc 1 143 0
 299 0118 6022     		mov	r2, #96
 300 011a 0C3B     		sub	r3, r3, #12
 301 011c 1A60     		str	r2, [r3]
 144:testLedMatrix.c ****   timer();
 302              		.loc 1 144 0
 303 011e FFF7FEFF 		bl	timer
 145:testLedMatrix.c ****   IODIR0 |= SPI_CS;
 304              		.loc 1 145 0
 305 0122 5D49     		ldr	r1, .L66+8
 306 0124 8023     		mov	r3, #128
 307 0126 0A68     		ldr	r2, [r1]
ARM GAS  /cygdrive/c/DOCUME~1/mkwapisz/LOCALS~1/Temp/cce8X8VJ.s 			page 9


 308 0128 1B02     		lsl	r3, r3, #8
 309 012a 1A43     		orr	r2, r2, r3
 310 012c 0A60     		str	r2, [r1]
 146:testLedMatrix.c **** 
 147:testLedMatrix.c ****   //testMotor(0);
 148:testLedMatrix.c **** 
 149:testLedMatrix.c ****   srand(123456);
 311              		.loc 1 149 0
 312 012e 5B48     		ldr	r0, .L66+12
 313 0130 FFF7FEFF 		bl	srand
 314              	.L35:
 315              	.LBB18:
 150:testLedMatrix.c **** 	for( ; ; )
 151:testLedMatrix.c ****  // while((IOPIN0 & (1<<14)) )
 152:testLedMatrix.c ****   {
 153:testLedMatrix.c **** 		PINSEL0 |= 0x00001500 ;
 316              		.loc 1 153 0
 317 0134 5649     		ldr	r1, .L66
 318 0136 A823     		mov	r3, #168
 319 0138 0A68     		ldr	r2, [r1]
 320 013a 5B01     		lsl	r3, r3, #5
 321 013c 1A43     		orr	r2, r2, r3
 322 013e 0A60     		str	r2, [r1]
 154:testLedMatrix.c **** 		state = 0;
 323              		.loc 1 154 0
 324 0140 574A     		ldr	r2, .L66+16
 325 0142 0023     		mov	r3, #0
 326 0144 1360     		str	r3, [r2]
 155:testLedMatrix.c **** 		int znak = rand()%100;
 327              		.loc 1 155 0
 328 0146 FFF7FEFF 		bl	rand
 156:testLedMatrix.c **** 	    cntA++;
 157:testLedMatrix.c **** 	    if (cntA > sizeof(kolko)-8)
 158:testLedMatrix.c **** 	      cntA = 0;
 159:testLedMatrix.c **** 		  
 160:testLedMatrix.c **** 	    //BUTTON START
 161:testLedMatrix.c **** 
 162:testLedMatrix.c **** 		//BUTTON END
 163:testLedMatrix.c **** 
 164:testLedMatrix.c **** 	    if(lifes > 0)
 329              		.loc 1 164 0
 330 014a 564B     		ldr	r3, .L66+20
 331 014c 1B68     		ldr	r3, [r3]
 332 014e 002B     		cmp	r3, #0
 333 0150 20DD     		ble	.L36
 165:testLedMatrix.c **** 	    {
 166:testLedMatrix.c **** 	    if(znak > 50)
 334              		.loc 1 166 0
 335 0152 6421     		mov	r1, #100
 336 0154 FFF7FEFF 		bl	__modsi3
 337 0158 534C     		ldr	r4, .L66+24
 338 015a 3228     		cmp	r0, #50
 339 015c 0CDD     		ble	.L38
 167:testLedMatrix.c **** 	    {
 168:testLedMatrix.c **** 	      	pattern[0] = kolko[cntA+0];
 169:testLedMatrix.c **** 	      	pattern[1] = kolko[cntA+1];
 170:testLedMatrix.c **** 	      	pattern[2] = kolko[cntA+2];
ARM GAS  /cygdrive/c/DOCUME~1/mkwapisz/LOCALS~1/Temp/cce8X8VJ.s 			page 10


 340              		.loc 1 170 0
 341 015e 7F23     		mov	r3, #127
 342 0160 5B42     		neg	r3, r3
 343              		.loc 1 168 0
 344 0162 3C21     		mov	r1, #60
 345              		.loc 1 169 0
 346 0164 4222     		mov	r2, #66
 347              		.loc 1 168 0
 348 0166 2170     		strb	r1, [r4]
 349              		.loc 1 169 0
 350 0168 6270     		strb	r2, [r4, #1]
 351              		.loc 1 170 0
 352 016a A370     		strb	r3, [r4, #2]
 171:testLedMatrix.c **** 	      	pattern[3] = kolko[cntA+3];
 353              		.loc 1 171 0
 354 016c E370     		strb	r3, [r4, #3]
 172:testLedMatrix.c **** 	      	pattern[4] = kolko[cntA+4];
 355              		.loc 1 172 0
 356 016e 2371     		strb	r3, [r4, #4]
 173:testLedMatrix.c **** 	      	pattern[5] = kolko[cntA+5];
 357              		.loc 1 173 0
 358 0170 6371     		strb	r3, [r4, #5]
 174:testLedMatrix.c **** 	      	pattern[6] = kolko[cntA+6];
 359              		.loc 1 174 0
 360 0172 A271     		strb	r2, [r4, #6]
 175:testLedMatrix.c **** 	      	pattern[7] = kolko[cntA+7];
 361              		.loc 1 175 0
 362 0174 E171     		strb	r1, [r4, #7]
 363 0176 18E0     		b	.L40
 364              	.L38:
 176:testLedMatrix.c **** 	    }
 177:testLedMatrix.c **** 	    else
 178:testLedMatrix.c **** 	    {
 179:testLedMatrix.c **** 	    	pattern[0] = krzyzyk[cntA+0];
 365              		.loc 1 179 0
 366 0178 7F22     		mov	r2, #127
 367 017a 5242     		neg	r2, r2
 180:testLedMatrix.c **** 	      	pattern[1] = krzyzyk[cntA+1];
 368              		.loc 1 180 0
 369 017c 4220     		mov	r0, #66
 181:testLedMatrix.c **** 	      	pattern[2] = krzyzyk[cntA+2];
 370              		.loc 1 181 0
 371 017e 2421     		mov	r1, #36
 182:testLedMatrix.c **** 	      	pattern[3] = krzyzyk[cntA+3];
 372              		.loc 1 182 0
 373 0180 1823     		mov	r3, #24
 374              		.loc 1 179 0
 375 0182 2270     		strb	r2, [r4]
 376              		.loc 1 180 0
 377 0184 6070     		strb	r0, [r4, #1]
 378              		.loc 1 181 0
 379 0186 A170     		strb	r1, [r4, #2]
 380              		.loc 1 182 0
 381 0188 E370     		strb	r3, [r4, #3]
 183:testLedMatrix.c **** 	      	pattern[4] = krzyzyk[cntA+4];
 382              		.loc 1 183 0
 383 018a 2371     		strb	r3, [r4, #4]
ARM GAS  /cygdrive/c/DOCUME~1/mkwapisz/LOCALS~1/Temp/cce8X8VJ.s 			page 11


 184:testLedMatrix.c **** 	      	pattern[5] = krzyzyk[cntA+5];
 384              		.loc 1 184 0
 385 018c 6171     		strb	r1, [r4, #5]
 185:testLedMatrix.c **** 	      	pattern[6] = krzyzyk[cntA+6];
 386              		.loc 1 185 0
 387 018e A071     		strb	r0, [r4, #6]
 186:testLedMatrix.c **** 	      	pattern[7] = krzyzyk[cntA+7];
 388              		.loc 1 186 0
 389 0190 E271     		strb	r2, [r4, #7]
 390 0192 0AE0     		b	.L40
 391              	.L36:
 187:testLedMatrix.c **** 			}
 188:testLedMatrix.c **** 	    }
 189:testLedMatrix.c **** 	    else
 190:testLedMatrix.c **** 	    {
 191:testLedMatrix.c **** 	    	pattern[0] = krzyzyk2[cntA+0];
 392              		.loc 1 191 0
 393 0194 444A     		ldr	r2, .L66+24
 394 0196 0123     		mov	r3, #1
 395 0198 5B42     		neg	r3, r3
 396 019a 1370     		strb	r3, [r2]
 192:testLedMatrix.c **** 	    		      	pattern[1] = krzyzyk2[cntA+1];
 397              		.loc 1 192 0
 398 019c 5370     		strb	r3, [r2, #1]
 193:testLedMatrix.c **** 	    		      	pattern[2] = krzyzyk2[cntA+2];
 399              		.loc 1 193 0
 400 019e 9370     		strb	r3, [r2, #2]
 194:testLedMatrix.c **** 	    		      	pattern[3] = krzyzyk2[cntA+3];
 401              		.loc 1 194 0
 402 01a0 D370     		strb	r3, [r2, #3]
 195:testLedMatrix.c **** 	    		      	pattern[4] = krzyzyk2[cntA+4];
 403              		.loc 1 195 0
 404 01a2 1371     		strb	r3, [r2, #4]
 196:testLedMatrix.c **** 	    		      	pattern[5] = krzyzyk2[cntA+5];
 405              		.loc 1 196 0
 406 01a4 5371     		strb	r3, [r2, #5]
 197:testLedMatrix.c **** 	    		      	pattern[6] = krzyzyk2[cntA+6];
 407              		.loc 1 197 0
 408 01a6 9371     		strb	r3, [r2, #6]
 198:testLedMatrix.c **** 	    		      	pattern[7] = krzyzyk2[cntA+7];
 409              		.loc 1 198 0
 410 01a8 D371     		strb	r3, [r2, #7]
 411              	.L40:
 199:testLedMatrix.c **** 	    }
 200:testLedMatrix.c **** 	    //testMotor(1);
 201:testLedMatrix.c **** 
 202:testLedMatrix.c **** 	    timerCnt = 0;
 412              		.loc 1 202 0
 413 01aa 404A     		ldr	r2, .L66+28
 414 01ac 0023     		mov	r3, #0
 415 01ae 1360     		str	r3, [r2]
 416              	.L41:
 203:testLedMatrix.c **** 
 204:testLedMatrix.c **** 	    while(1)
 205:testLedMatrix.c **** 	    {
 206:testLedMatrix.c **** 	    	if(lifes>0)
 417              		.loc 1 206 0
ARM GAS  /cygdrive/c/DOCUME~1/mkwapisz/LOCALS~1/Temp/cce8X8VJ.s 			page 12


 418 01b0 3C4D     		ldr	r5, .L66+20
 419 01b2 2B68     		ldr	r3, [r5]
 420 01b4 002B     		cmp	r3, #0
 421 01b6 2DDD     		ble	.L42
 207:testLedMatrix.c **** 	    	{
 208:testLedMatrix.c **** 	    		testRGB(255,0,0);
 422              		.loc 1 208 0
 423 01b8 0022     		mov	r2, #0
 424 01ba 0021     		mov	r1, #0
 425 01bc FF20     		mov	r0, #255
 426 01be FFF7FEFF 		bl	testRGB
 209:testLedMatrix.c **** 	    		printf("%d\n", timerCnt);
 427              		.loc 1 209 0
 428 01c2 3A4C     		ldr	r4, .L66+28
 429 01c4 3A48     		ldr	r0, .L66+32
 430 01c6 2168     		ldr	r1, [r4]
 431 01c8 FFF7FEFF 		bl	simplePrintf
 210:testLedMatrix.c **** 	    		if(timerCnt > 2000)
 432              		.loc 1 210 0
 433 01cc FA23     		mov	r3, #250
 434 01ce 2268     		ldr	r2, [r4]
 435 01d0 DB00     		lsl	r3, r3, #3
 436 01d2 9A42     		cmp	r2, r3
 437 01d4 04DD     		ble	.L44
 211:testLedMatrix.c **** 	    		{
 212:testLedMatrix.c **** 	    			if(pattern[0] == kolko[cntA+0])lifes-=1;
 438              		.loc 1 212 0
 439 01d6 344B     		ldr	r3, .L66+24
 440 01d8 1B78     		ldrb	r3, [r3]
 441 01da 3C2B     		cmp	r3, #60
 442 01dc 16D1     		bne	.L52
 443 01de 0CE0     		b	.L65
 444              	.L44:
 213:testLedMatrix.c **** 	    			showResult = 1;
 214:testLedMatrix.c **** 	    			break;
 215:testLedMatrix.c **** 	    		}
 216:testLedMatrix.c **** 	    		if( !(IOPIN0 & (1<<14)) ) // Evaluates to True for a 'LOW' on P0.14
 445              		.loc 1 216 0
 446 01e0 344B     		ldr	r3, .L66+36
 447 01e2 1B68     		ldr	r3, [r3]
 448 01e4 5A04     		lsl	r2, r3, #17
 449 01e6 E3D4     		bmi	.L41
 217:testLedMatrix.c **** 					{
 218:testLedMatrix.c **** 						if(pattern[0] == krzyzyk[cntA+0])
 450              		.loc 1 218 0
 451 01e8 2F4B     		ldr	r3, .L66+24
 452 01ea 1B78     		ldrb	r3, [r3]
 453 01ec 812B     		cmp	r3, #129
 454 01ee 08D1     		bne	.L50
 219:testLedMatrix.c **** 						{
 220:testLedMatrix.c **** 							testRGB(0,0,255);
 455              		.loc 1 220 0
 456 01f0 0020     		mov	r0, #0
 457 01f2 0021     		mov	r1, #0
 458 01f4 FF22     		mov	r2, #255
 459 01f6 FFF7FEFF 		bl	testRGB
 460              	.L65:
ARM GAS  /cygdrive/c/DOCUME~1/mkwapisz/LOCALS~1/Temp/cce8X8VJ.s 			page 13


 221:testLedMatrix.c **** 							lifes -= 1;
 461              		.loc 1 221 0
 462 01fa 2B68     		ldr	r3, [r5]
 463 01fc 013B     		sub	r3, r3, #1
 464 01fe 2B60     		str	r3, [r5]
 465 0200 04E0     		b	.L52
 466              	.L50:
 222:testLedMatrix.c **** 						}
 223:testLedMatrix.c **** 						else
 224:testLedMatrix.c **** 						{
 225:testLedMatrix.c **** 							testRGB(255,255,255);
 467              		.loc 1 225 0
 468 0202 FF20     		mov	r0, #255
 469 0204 FF21     		mov	r1, #255
 470 0206 FF22     		mov	r2, #255
 471 0208 FFF7FEFF 		bl	testRGB
 472              	.L52:
 226:testLedMatrix.c **** 						}
 227:testLedMatrix.c **** 						showResult = 1;
 473              		.loc 1 227 0
 474 020c 2A4A     		ldr	r2, .L66+40
 475 020e 0123     		mov	r3, #1
 476 0210 1360     		str	r3, [r2]
 477 0212 06E0     		b	.L48
 478              	.L42:
 228:testLedMatrix.c **** 						break;
 229:testLedMatrix.c **** 	            }
 230:testLedMatrix.c **** 	    	}
 231:testLedMatrix.c **** 	    	else
 232:testLedMatrix.c **** 	    	{
 233:testLedMatrix.c **** 	    		showResult = 1;
 479              		.loc 1 233 0
 480 0214 284A     		ldr	r2, .L66+40
 481 0216 0123     		mov	r3, #1
 234:testLedMatrix.c **** 	    		osSleep(1000);
 482              		.loc 1 234 0
 483 0218 FA20     		mov	r0, #250
 484              		.loc 1 233 0
 485 021a 1360     		str	r3, [r2]
 486              		.loc 1 234 0
 487 021c 8000     		lsl	r0, r0, #2
 488 021e FFF7FEFF 		bl	osSleep
 489              	.L48:
 235:testLedMatrix.c **** 	    		break;
 236:testLedMatrix.c **** 	    	}
 237:testLedMatrix.c **** 	    }
 238:testLedMatrix.c **** 
 239:testLedMatrix.c ****         //testMotor(0);
 240:testLedMatrix.c **** 
 241:testLedMatrix.c **** 	
 242:testLedMatrix.c **** 	//while(timerCnt%100 == 0) ;
 243:testLedMatrix.c **** 
 244:testLedMatrix.c **** 	    if(lifes <= 0)
 490              		.loc 1 244 0
 491 0222 204B     		ldr	r3, .L66+20
 492 0224 1B68     		ldr	r3, [r3]
 493 0226 002B     		cmp	r3, #0
ARM GAS  /cygdrive/c/DOCUME~1/mkwapisz/LOCALS~1/Temp/cce8X8VJ.s 			page 14


 494 0228 16DC     		bgt	.L64
 245:testLedMatrix.c **** 	    {
 246:testLedMatrix.c **** 	    	pattern[0] = krzyzyk2[cntA+0];
 495              		.loc 1 246 0
 496 022a 1F4A     		ldr	r2, .L66+24
 497 022c 0123     		mov	r3, #1
 498 022e 5B42     		neg	r3, r3
 499 0230 1370     		strb	r3, [r2]
 247:testLedMatrix.c ****       	pattern[1] = krzyzyk2[cntA+1];
 500              		.loc 1 247 0
 501 0232 5370     		strb	r3, [r2, #1]
 248:testLedMatrix.c ****       	pattern[2] = krzyzyk2[cntA+2];
 502              		.loc 1 248 0
 503 0234 9370     		strb	r3, [r2, #2]
 249:testLedMatrix.c ****       	pattern[3] = krzyzyk2[cntA+3];
 504              		.loc 1 249 0
 505 0236 D370     		strb	r3, [r2, #3]
 250:testLedMatrix.c ****       	pattern[4] = krzyzyk2[cntA+4];
 506              		.loc 1 250 0
 507 0238 1371     		strb	r3, [r2, #4]
 251:testLedMatrix.c ****       	pattern[5] = krzyzyk2[cntA+5];
 508              		.loc 1 251 0
 509 023a 5371     		strb	r3, [r2, #5]
 252:testLedMatrix.c ****       	pattern[6] = krzyzyk2[cntA+6];
 510              		.loc 1 252 0
 511 023c 9371     		strb	r3, [r2, #6]
 253:testLedMatrix.c ****       	pattern[7] = krzyzyk2[cntA+7];
 512              		.loc 1 253 0
 513 023e D371     		strb	r3, [r2, #7]
 514 0240 0AE0     		b	.L64
 515              	.L55:
 254:testLedMatrix.c **** 	    }
 255:testLedMatrix.c **** 
 256:testLedMatrix.c **** 	    while(showResult == 1)
 257:testLedMatrix.c **** 	    {
 258:testLedMatrix.c **** 	    	if(lifes <=0)
 516              		.loc 1 258 0
 517 0242 1368     		ldr	r3, [r2]
 518 0244 002B     		cmp	r3, #0
 519 0246 04DC     		bgt	.L56
 259:testLedMatrix.c **** 	    	{
 260:testLedMatrix.c **** 	    		testRGB(255,0,0);
 520              		.loc 1 260 0
 521 0248 FF20     		mov	r0, #255
 522 024a 0021     		mov	r1, #0
 523 024c 0022     		mov	r2, #0
 524 024e FFF7FEFF 		bl	testRGB
 525              	.L56:
 261:testLedMatrix.c **** 	    	}
 262:testLedMatrix.c **** 	    	osSleep(10);
 526              		.loc 1 262 0
 527 0252 0A20     		mov	r0, #10
 528 0254 FFF7FEFF 		bl	osSleep
 529              	.L64:
 530              		.loc 1 256 0
 531 0258 174B     		ldr	r3, .L66+40
 532 025a 1B68     		ldr	r3, [r3]
ARM GAS  /cygdrive/c/DOCUME~1/mkwapisz/LOCALS~1/Temp/cce8X8VJ.s 			page 15


 533 025c 114A     		ldr	r2, .L66+20
 534 025e 012B     		cmp	r3, #1
 535 0260 EFD0     		beq	.L55
 263:testLedMatrix.c **** 	    }
 264:testLedMatrix.c **** 
 265:testLedMatrix.c **** 	if(lifes > 0)
 536              		.loc 1 265 0
 537 0262 1368     		ldr	r3, [r2]
 538 0264 002B     		cmp	r3, #0
 539 0266 09DD     		ble	.L59
 266:testLedMatrix.c **** 	{
 267:testLedMatrix.c ****   	pattern[0] = empty[cntA+0];
 540              		.loc 1 267 0
 541 0268 0F4A     		ldr	r2, .L66+24
 542 026a 0023     		mov	r3, #0
 543 026c 1370     		strb	r3, [r2]
 268:testLedMatrix.c ****   	pattern[1] = empty[cntA+1];
 544              		.loc 1 268 0
 545 026e 5370     		strb	r3, [r2, #1]
 269:testLedMatrix.c ****   	pattern[2] = empty[cntA+2];
 546              		.loc 1 269 0
 547 0270 9370     		strb	r3, [r2, #2]
 270:testLedMatrix.c ****   	pattern[3] = empty[cntA+3];
 548              		.loc 1 270 0
 549 0272 D370     		strb	r3, [r2, #3]
 271:testLedMatrix.c ****   	pattern[4] = empty[cntA+4];
 550              		.loc 1 271 0
 551 0274 1371     		strb	r3, [r2, #4]
 272:testLedMatrix.c ****   	pattern[5] = empty[cntA+5];
 552              		.loc 1 272 0
 553 0276 5371     		strb	r3, [r2, #5]
 273:testLedMatrix.c ****   	pattern[6] = empty[cntA+6];
 554              		.loc 1 273 0
 555 0278 9371     		strb	r3, [r2, #6]
 274:testLedMatrix.c ****   	pattern[7] = empty[cntA+7];
 556              		.loc 1 274 0
 557 027a D371     		strb	r3, [r2, #7]
 558              	.L59:
 275:testLedMatrix.c **** 	}
 276:testLedMatrix.c **** 
 277:testLedMatrix.c **** 
 278:testLedMatrix.c **** 	osSleep(100);
 559              		.loc 1 278 0
 560 027c 6420     		mov	r0, #100
 561 027e FFF7FEFF 		bl	osSleep
 279:testLedMatrix.c **** 	testRGB(0,0,0);
 562              		.loc 1 279 0
 563 0282 0021     		mov	r1, #0
 564 0284 0022     		mov	r2, #0
 565 0286 0020     		mov	r0, #0
 566 0288 FFF7FEFF 		bl	testRGB
 567 028c 52E7     		b	.L35
 568              	.L67:
 569 028e 0000     		.align	2
 570              	.L66:
 571 0290 00C002E0 		.word	-536690688
 572 0294 0C0002E0 		.word	-536739828
ARM GAS  /cygdrive/c/DOCUME~1/mkwapisz/LOCALS~1/Temp/cce8X8VJ.s 			page 16


 573 0298 088002E0 		.word	-536707064
 574 029c 40E20100 		.word	123456
 575 02a0 00000000 		.word	state
 576 02a4 00000000 		.word	lifes
 577 02a8 00000000 		.word	pattern
 578 02ac 00000000 		.word	timerCnt
 579 02b0 00000000 		.word	.LC5
 580 02b4 008002E0 		.word	-536707072
 581 02b8 00000000 		.word	showResult
 582              	.LBE18:
 583              	.LFE9:
 584              		.size	testLedMatrix, .-testLedMatrix
 585              		.align	2
 586              		.global	T1ISR
 587              		.code 16
 588              		.thumb_func
 589              		.type	T1ISR, %function
 590              	T1ISR:
 591              	.LFB4:
 592              		.loc 1 94 0
 593 02bc 00B5     		push	{lr}
 594              	.LCFI2:
 595              		.loc 1 97 0
 596 02be 054A     		ldr	r2, .L70
 597              		.loc 1 96 0
 598 02c0 0549     		ldr	r1, .L70+4
 599              		.loc 1 97 0
 600 02c2 1368     		ldr	r3, [r2]
 601              		.loc 1 96 0
 602 02c4 0868     		ldr	r0, [r1]
 603              		.loc 1 97 0
 604 02c6 0133     		add	r3, r3, #1
 605 02c8 1360     		str	r3, [r2]
 606              		.loc 1 98 0
 607 02ca 0860     		str	r0, [r1]
 608              		.loc 1 99 0
 609 02cc FFF7FEFF 		bl	ledMatrix
 610              		.loc 1 100 0
 611              		@ sp needed for prologue
 612 02d0 01BC     		pop	{r0}
 613 02d2 0047     		bx	r0
 614              	.L71:
 615              		.align	2
 616              	.L70:
 617 02d4 00000000 		.word	timerCnt
 618 02d8 008000E0 		.word	-536838144
 619              	.LFE4:
 620              		.size	T1ISR, .-T1ISR
 621              		.global	kolko
 622              		.section	.rodata
 623              		.type	kolko, %object
 624              		.size	kolko, 8
 625              	kolko:
 626 0000 3C       		.byte	60
 627 0001 42       		.byte	66
 628 0002 81       		.byte	-127
 629 0003 81       		.byte	-127
ARM GAS  /cygdrive/c/DOCUME~1/mkwapisz/LOCALS~1/Temp/cce8X8VJ.s 			page 17


 630 0004 81       		.byte	-127
 631 0005 81       		.byte	-127
 632 0006 42       		.byte	66
 633 0007 3C       		.byte	60
 634              		.global	krzyzyk
 635              		.type	krzyzyk, %object
 636              		.size	krzyzyk, 8
 637              	krzyzyk:
 638 0008 81       		.byte	-127
 639 0009 42       		.byte	66
 640 000a 24       		.byte	36
 641 000b 18       		.byte	24
 642 000c 18       		.byte	24
 643 000d 24       		.byte	36
 644 000e 42       		.byte	66
 645 000f 81       		.byte	-127
 646              		.global	krzyzyk2
 647              		.type	krzyzyk2, %object
 648              		.size	krzyzyk2, 8
 649              	krzyzyk2:
 650 0010 FF       		.byte	-1
 651 0011 FF       		.byte	-1
 652 0012 FF       		.byte	-1
 653 0013 FF       		.byte	-1
 654 0014 FF       		.byte	-1
 655 0015 FF       		.byte	-1
 656 0016 FF       		.byte	-1
 657 0017 FF       		.byte	-1
 658              		.global	empty
 659              		.type	empty, %object
 660              		.size	empty, 8
 661              	empty:
 662 0018 00000000 		.space	8
 662      00000000 
 663              		.global	pattern
 664              		.bss
 665              		.type	pattern, %object
 666              		.size	pattern, 8
 667              	pattern:
 668 0000 00000000 		.space	8
 668      00000000 
 669              		.global	state
 670              		.align	2
 671              		.type	state, %object
 672              		.size	state, 4
 673              	state:
 674 0008 00000000 		.space	4
 675              		.section	.debug_frame,"",%progbits
 676              	.Lframe0:
 677 0000 0C000000 		.4byte	.LECIE0-.LSCIE0
 678              	.LSCIE0:
 679 0004 FFFFFFFF 		.4byte	0xffffffff
 680 0008 01       		.byte	0x1
 681 0009 00       		.ascii	"\000"
 682 000a 01       		.uleb128 0x1
 683 000b 7C       		.sleb128 -4
 684 000c 0E       		.byte	0xe
ARM GAS  /cygdrive/c/DOCUME~1/mkwapisz/LOCALS~1/Temp/cce8X8VJ.s 			page 18


 685 000d 0C       		.byte	0xc
 686 000e 0D       		.uleb128 0xd
 687 000f 00       		.uleb128 0x0
 688              		.align	2
 689              	.LECIE0:
 690              	.LSFDE0:
 691 0010 0C000000 		.4byte	.LEFDE0-.LASFDE0
 692              	.LASFDE0:
 693 0014 00000000 		.4byte	.Lframe0
 694 0018 00000000 		.4byte	.LFB3
 695 001c 60000000 		.4byte	.LFE3-.LFB3
 696              		.align	2
 697              	.LEFDE0:
 698              	.LSFDE2:
 699 0020 0C000000 		.4byte	.LEFDE2-.LASFDE2
 700              	.LASFDE2:
 701 0024 00000000 		.4byte	.Lframe0
 702 0028 60000000 		.4byte	.LFB5
 703 002c 14000000 		.4byte	.LFE5-.LFB5
 704              		.align	2
 705              	.LEFDE2:
 706              	.LSFDE4:
 707 0030 0C000000 		.4byte	.LEFDE4-.LASFDE4
 708              	.LASFDE4:
 709 0034 00000000 		.4byte	.Lframe0
 710 0038 74000000 		.4byte	.LFB6
 711 003c 10000000 		.4byte	.LFE6-.LFB6
 712              		.align	2
 713              	.LEFDE4:
 714              	.LSFDE6:
 715 0040 0C000000 		.4byte	.LEFDE6-.LASFDE6
 716              	.LASFDE6:
 717 0044 00000000 		.4byte	.Lframe0
 718 0048 84000000 		.4byte	.LFB7
 719 004c 1C000000 		.4byte	.LFE7-.LFB7
 720              		.align	2
 721              	.LEFDE6:
 722              	.LSFDE8:
 723 0050 0C000000 		.4byte	.LEFDE8-.LASFDE8
 724              	.LASFDE8:
 725 0054 00000000 		.4byte	.Lframe0
 726 0058 A0000000 		.4byte	.LFB8
 727 005c 4C000000 		.4byte	.LFE8-.LFB8
 728              		.align	2
 729              	.LEFDE8:
 730              	.LSFDE10:
 731 0060 14000000 		.4byte	.LEFDE10-.LASFDE10
 732              	.LASFDE10:
 733 0064 00000000 		.4byte	.Lframe0
 734 0068 EC000000 		.4byte	.LFB2
 735 006c 18000000 		.4byte	.LFE2-.LFB2
 736 0070 42       		.byte	0x4
 737              		.4byte	.LCFI0-.LFB2
 738 0071 0E       		.byte	0xe
 739 0072 04       		.uleb128 0x4
 740 0073 8E       		.byte	0x8e
 741 0074 01       		.uleb128 0x1
ARM GAS  /cygdrive/c/DOCUME~1/mkwapisz/LOCALS~1/Temp/cce8X8VJ.s 			page 19


 742 0075 000000   		.align	2
 743              	.LEFDE10:
 744              	.LSFDE12:
 745 0078 18000000 		.4byte	.LEFDE12-.LASFDE12
 746              	.LASFDE12:
 747 007c 00000000 		.4byte	.Lframe0
 748 0080 04010000 		.4byte	.LFB9
 749 0084 B8010000 		.4byte	.LFE9-.LFB9
 750 0088 42       		.byte	0x4
 751              		.4byte	.LCFI1-.LFB9
 752 0089 0E       		.byte	0xe
 753 008a 0C       		.uleb128 0xc
 754 008b 84       		.byte	0x84
 755 008c 03       		.uleb128 0x3
 756 008d 85       		.byte	0x85
 757 008e 02       		.uleb128 0x2
 758 008f 8E       		.byte	0x8e
 759 0090 01       		.uleb128 0x1
 760 0091 000000   		.align	2
 761              	.LEFDE12:
 762              	.LSFDE14:
 763 0094 14000000 		.4byte	.LEFDE14-.LASFDE14
 764              	.LASFDE14:
 765 0098 00000000 		.4byte	.Lframe0
 766 009c BC020000 		.4byte	.LFB4
 767 00a0 20000000 		.4byte	.LFE4-.LFB4
 768 00a4 42       		.byte	0x4
 769              		.4byte	.LCFI2-.LFB4
 770 00a5 0E       		.byte	0xe
 771 00a6 04       		.uleb128 0x4
 772 00a7 8E       		.byte	0x8e
 773 00a8 01       		.uleb128 0x1
 774 00a9 000000   		.align	2
 775              	.LEFDE14:
 776              		.file 2 "./startup/../pre_emptive_os/api/../api/general.h"
 777              		.text
 778              	.Letext0:
 779              		.section	.debug_loc,"",%progbits
 780              	.Ldebug_loc0:
 781              	.LLST5:
 782 0000 EC000000 		.4byte	.LFB2-.Ltext0
 783 0004 EE000000 		.4byte	.LCFI0-.Ltext0
 784 0008 0100     		.2byte	0x1
 785 000a 5D       		.byte	0x5d
 786 000b EE000000 		.4byte	.LCFI0-.Ltext0
 787 000f 04010000 		.4byte	.LFE2-.Ltext0
 788 0013 0200     		.2byte	0x2
 789 0015 7D       		.byte	0x7d
 790 0016 04       		.sleb128 4
 791 0017 00000000 		.4byte	0x0
 792 001b 00000000 		.4byte	0x0
 793              	.LLST6:
 794 001f 04010000 		.4byte	.LFB9-.Ltext0
 795 0023 06010000 		.4byte	.LCFI1-.Ltext0
 796 0027 0100     		.2byte	0x1
 797 0029 5D       		.byte	0x5d
 798 002a 06010000 		.4byte	.LCFI1-.Ltext0
ARM GAS  /cygdrive/c/DOCUME~1/mkwapisz/LOCALS~1/Temp/cce8X8VJ.s 			page 20


 799 002e BC020000 		.4byte	.LFE9-.Ltext0
 800 0032 0200     		.2byte	0x2
 801 0034 7D       		.byte	0x7d
 802 0035 0C       		.sleb128 12
 803 0036 00000000 		.4byte	0x0
 804 003a 00000000 		.4byte	0x0
 805              	.LLST7:
 806 003e BC020000 		.4byte	.LFB4-.Ltext0
 807 0042 BE020000 		.4byte	.LCFI2-.Ltext0
 808 0046 0100     		.2byte	0x1
 809 0048 5D       		.byte	0x5d
 810 0049 BE020000 		.4byte	.LCFI2-.Ltext0
 811 004d DC020000 		.4byte	.LFE4-.Ltext0
 812 0051 0200     		.2byte	0x2
 813 0053 7D       		.byte	0x7d
 814 0054 04       		.sleb128 4
 815 0055 00000000 		.4byte	0x0
 816 0059 00000000 		.4byte	0x0
 817              		.section	.debug_info
 818 0000 9E020000 		.4byte	0x29e
 819 0004 0200     		.2byte	0x2
 820 0006 00000000 		.4byte	.Ldebug_abbrev0
 821 000a 04       		.byte	0x4
 822 000b 01       		.uleb128 0x1
 823 000c 00000000 		.4byte	.Ldebug_line0
 824 0010 DC020000 		.4byte	.Letext0
 825 0014 00000000 		.4byte	.Ltext0
 826 0018 01010000 		.4byte	.LASF30
 827 001c 01       		.byte	0x1
 828 001d 5B000000 		.4byte	.LASF31
 829 0021 3B010000 		.4byte	.LASF32
 830 0025 02       		.uleb128 0x2
 831 0026 74553800 		.ascii	"tU8\000"
 832 002a 02       		.byte	0x2
 833 002b 47       		.byte	0x47
 834 002c 30000000 		.4byte	0x30
 835 0030 03       		.uleb128 0x3
 836 0031 F3000000 		.4byte	.LASF0
 837 0035 01       		.byte	0x1
 838 0036 08       		.byte	0x8
 839 0037 03       		.uleb128 0x3
 840 0038 C6000000 		.4byte	.LASF1
 841 003c 02       		.byte	0x2
 842 003d 07       		.byte	0x7
 843 003e 03       		.uleb128 0x3
 844 003f 9E000000 		.4byte	.LASF2
 845 0043 04       		.byte	0x4
 846 0044 07       		.byte	0x7
 847 0045 03       		.uleb128 0x3
 848 0046 11000000 		.4byte	.LASF3
 849 004a 01       		.byte	0x1
 850 004b 06       		.byte	0x6
 851 004c 03       		.uleb128 0x3
 852 004d 0D010000 		.4byte	.LASF4
 853 0051 02       		.byte	0x2
 854 0052 05       		.byte	0x5
 855 0053 04       		.uleb128 0x4
ARM GAS  /cygdrive/c/DOCUME~1/mkwapisz/LOCALS~1/Temp/cce8X8VJ.s 			page 21


 856 0054 696E7400 		.ascii	"int\000"
 857 0058 04       		.byte	0x4
 858 0059 05       		.byte	0x5
 859 005a 03       		.uleb128 0x3
 860 005b AB000000 		.4byte	.LASF5
 861 005f 04       		.byte	0x4
 862 0060 07       		.byte	0x7
 863 0061 03       		.uleb128 0x3
 864 0062 AB000000 		.4byte	.LASF5
 865 0066 04       		.byte	0x4
 866 0067 07       		.byte	0x7
 867 0068 03       		.uleb128 0x3
 868 0069 81000000 		.4byte	.LASF6
 869 006d 04       		.byte	0x4
 870 006e 05       		.byte	0x5
 871 006f 03       		.uleb128 0x3
 872 0070 4D000000 		.4byte	.LASF7
 873 0074 08       		.byte	0x8
 874 0075 05       		.byte	0x5
 875 0076 03       		.uleb128 0x3
 876 0077 2E010000 		.4byte	.LASF8
 877 007b 01       		.byte	0x1
 878 007c 08       		.byte	0x8
 879 007d 03       		.uleb128 0x3
 880 007e 2E000000 		.4byte	.LASF9
 881 0082 08       		.byte	0x8
 882 0083 07       		.byte	0x7
 883 0084 05       		.uleb128 0x5
 884 0085 01       		.byte	0x1
 885 0086 95000000 		.4byte	.LASF10
 886 008a 01       		.byte	0x1
 887 008b 67       		.byte	0x67
 888 008c 01       		.byte	0x1
 889 008d 01       		.byte	0x1
 890 008e 05       		.uleb128 0x5
 891 008f 01       		.byte	0x1
 892 0090 45000000 		.4byte	.LASF11
 893 0094 01       		.byte	0x1
 894 0095 6D       		.byte	0x6d
 895 0096 01       		.byte	0x1
 896 0097 01       		.byte	0x1
 897 0098 05       		.uleb128 0x5
 898 0099 01       		.byte	0x1
 899 009a 8A000000 		.4byte	.LASF12
 900 009e 01       		.byte	0x1
 901 009f 73       		.byte	0x73
 902 00a0 01       		.byte	0x1
 903 00a1 01       		.byte	0x1
 904 00a2 06       		.uleb128 0x6
 905 00a3 01       		.byte	0x1
 906 00a4 23000000 		.4byte	.LASF13
 907 00a8 01       		.byte	0x1
 908 00a9 4E       		.byte	0x4e
 909 00aa 01       		.byte	0x1
 910 00ab 00000000 		.4byte	.LFB3
 911 00af 60000000 		.4byte	.LFE3
 912 00b3 01       		.byte	0x1
ARM GAS  /cygdrive/c/DOCUME~1/mkwapisz/LOCALS~1/Temp/cce8X8VJ.s 			page 22


 913 00b4 5D       		.byte	0x5d
 914 00b5 07       		.uleb128 0x7
 915 00b6 84000000 		.4byte	0x84
 916 00ba 60000000 		.4byte	.LFB5
 917 00be 74000000 		.4byte	.LFE5
 918 00c2 01       		.byte	0x1
 919 00c3 5D       		.byte	0x5d
 920 00c4 07       		.uleb128 0x7
 921 00c5 8E000000 		.4byte	0x8e
 922 00c9 74000000 		.4byte	.LFB6
 923 00cd 84000000 		.4byte	.LFE6
 924 00d1 01       		.byte	0x1
 925 00d2 5D       		.byte	0x5d
 926 00d3 07       		.uleb128 0x7
 927 00d4 98000000 		.4byte	0x98
 928 00d8 84000000 		.4byte	.LFB7
 929 00dc A0000000 		.4byte	.LFE7
 930 00e0 01       		.byte	0x1
 931 00e1 5D       		.byte	0x5d
 932 00e2 08       		.uleb128 0x8
 933 00e3 36010000 		.4byte	0x136
 934 00e7 01       		.byte	0x1
 935 00e8 76000000 		.4byte	.LASF15
 936 00ec 01       		.byte	0x1
 937 00ed 79       		.byte	0x79
 938 00ee 01       		.byte	0x1
 939 00ef A0000000 		.4byte	.LFB8
 940 00f3 EC000000 		.4byte	.LFE8
 941 00f7 01       		.byte	0x1
 942 00f8 5D       		.byte	0x5d
 943 00f9 09       		.uleb128 0x9
 944 00fa 84000000 		.4byte	0x84
 945 00fe A0000000 		.4byte	.LBB10
 946 0102 AC000000 		.4byte	.LBE10
 947 0106 01       		.byte	0x1
 948 0107 7A       		.byte	0x7a
 949 0108 09       		.uleb128 0x9
 950 0109 8E000000 		.4byte	0x8e
 951 010d AC000000 		.4byte	.LBB12
 952 0111 B6000000 		.4byte	.LBE12
 953 0115 01       		.byte	0x1
 954 0116 7B       		.byte	0x7b
 955 0117 09       		.uleb128 0x9
 956 0118 98000000 		.4byte	0x98
 957 011c B6000000 		.4byte	.LBB14
 958 0120 C8000000 		.4byte	.LBE14
 959 0124 01       		.byte	0x1
 960 0125 7C       		.byte	0x7c
 961 0126 09       		.uleb128 0x9
 962 0127 8E000000 		.4byte	0x8e
 963 012b C8000000 		.4byte	.LBB16
 964 012f D2000000 		.4byte	.LBE16
 965 0133 01       		.byte	0x1
 966 0134 7D       		.byte	0x7d
 967 0135 00       		.byte	0x0
 968 0136 0A       		.uleb128 0xa
 969 0137 01       		.byte	0x1
ARM GAS  /cygdrive/c/DOCUME~1/mkwapisz/LOCALS~1/Temp/cce8X8VJ.s 			page 23


 970 0138 62010000 		.4byte	.LASF14
 971 013c 01       		.byte	0x1
 972 013d 46       		.byte	0x46
 973 013e 01       		.byte	0x1
 974 013f EC000000 		.4byte	.LFB2
 975 0143 04010000 		.4byte	.LFE2
 976 0147 00000000 		.4byte	.LLST5
 977 014b 0B       		.uleb128 0xb
 978 014c 85010000 		.4byte	0x185
 979 0150 01       		.byte	0x1
 980 0151 17010000 		.4byte	.LASF16
 981 0155 01       		.byte	0x1
 982 0156 8A       		.byte	0x8a
 983 0157 01       		.byte	0x1
 984 0158 04010000 		.4byte	.LFB9
 985 015c BC020000 		.4byte	.LFE9
 986 0160 1F000000 		.4byte	.LLST6
 987 0164 0C       		.uleb128 0xc
 988 0165 6B000000 		.4byte	.LASF17
 989 0169 01       		.byte	0x1
 990 016a 8B       		.byte	0x8b
 991 016b 25000000 		.4byte	0x25
 992 016f 0D       		.uleb128 0xd
 993 0170 34010000 		.4byte	.LBB18
 994 0174 BC020000 		.4byte	.LBE18
 995 0178 0C       		.uleb128 0xc
 996 0179 DF000000 		.4byte	.LASF18
 997 017d 01       		.byte	0x1
 998 017e 9B       		.byte	0x9b
 999 017f 53000000 		.4byte	0x53
 1000 0183 00       		.byte	0x0
 1001 0184 00       		.byte	0x0
 1002 0185 0B       		.uleb128 0xb
 1003 0186 AA010000 		.4byte	0x1aa
 1004 018a 01       		.byte	0x1
 1005 018b 1D000000 		.4byte	.LASF19
 1006 018f 01       		.byte	0x1
 1007 0190 5E       		.byte	0x5e
 1008 0191 01       		.byte	0x1
 1009 0192 BC020000 		.4byte	.LFB4
 1010 0196 DC020000 		.4byte	.LFE4
 1011 019a 3E000000 		.4byte	.LLST7
 1012 019e 0C       		.uleb128 0xc
 1013 019f E4000000 		.4byte	.LASF20
 1014 01a3 01       		.byte	0x1
 1015 01a4 5F       		.byte	0x5f
 1016 01a5 68000000 		.4byte	0x68
 1017 01a9 00       		.byte	0x0
 1018 01aa 0E       		.uleb128 0xe
 1019 01ab BA010000 		.4byte	0x1ba
 1020 01af 25000000 		.4byte	0x25
 1021 01b3 0F       		.uleb128 0xf
 1022 01b4 5A000000 		.4byte	0x5a
 1023 01b8 07       		.byte	0x7
 1024 01b9 00       		.byte	0x0
 1025 01ba 10       		.uleb128 0x10
 1026 01bb D9000000 		.4byte	.LASF21
ARM GAS  /cygdrive/c/DOCUME~1/mkwapisz/LOCALS~1/Temp/cce8X8VJ.s 			page 24


 1027 01bf 01       		.byte	0x1
 1028 01c0 1C       		.byte	0x1c
 1029 01c1 CC010000 		.4byte	0x1cc
 1030 01c5 01       		.byte	0x1
 1031 01c6 05       		.byte	0x5
 1032 01c7 03       		.byte	0x3
 1033 01c8 00000000 		.4byte	kolko
 1034 01cc 11       		.uleb128 0x11
 1035 01cd AA010000 		.4byte	0x1aa
 1036 01d1 0E       		.uleb128 0xe
 1037 01d2 E1010000 		.4byte	0x1e1
 1038 01d6 25000000 		.4byte	0x25
 1039 01da 0F       		.uleb128 0xf
 1040 01db 5A000000 		.4byte	0x5a
 1041 01df 07       		.byte	0x7
 1042 01e0 00       		.byte	0x0
 1043 01e1 10       		.uleb128 0x10
 1044 01e2 33010000 		.4byte	.LASF22
 1045 01e6 01       		.byte	0x1
 1046 01e7 1E       		.byte	0x1e
 1047 01e8 F3010000 		.4byte	0x1f3
 1048 01ec 01       		.byte	0x1
 1049 01ed 05       		.byte	0x5
 1050 01ee 03       		.byte	0x3
 1051 01ef 00000000 		.4byte	krzyzyk
 1052 01f3 11       		.uleb128 0x11
 1053 01f4 D1010000 		.4byte	0x1d1
 1054 01f8 0E       		.uleb128 0xe
 1055 01f9 08020000 		.4byte	0x208
 1056 01fd 25000000 		.4byte	0x25
 1057 0201 0F       		.uleb128 0xf
 1058 0202 5A000000 		.4byte	0x5a
 1059 0206 07       		.byte	0x7
 1060 0207 00       		.byte	0x0
 1061 0208 10       		.uleb128 0x10
 1062 0209 25010000 		.4byte	.LASF23
 1063 020d 01       		.byte	0x1
 1064 020e 20       		.byte	0x20
 1065 020f 1A020000 		.4byte	0x21a
 1066 0213 01       		.byte	0x1
 1067 0214 05       		.byte	0x5
 1068 0215 03       		.byte	0x3
 1069 0216 00000000 		.4byte	krzyzyk2
 1070 021a 11       		.uleb128 0x11
 1071 021b F8010000 		.4byte	0x1f8
 1072 021f 0E       		.uleb128 0xe
 1073 0220 2F020000 		.4byte	0x22f
 1074 0224 25000000 		.4byte	0x25
 1075 0228 0F       		.uleb128 0xf
 1076 0229 5A000000 		.4byte	0x5a
 1077 022d 07       		.byte	0x7
 1078 022e 00       		.byte	0x0
 1079 022f 10       		.uleb128 0x10
 1080 0230 0B000000 		.4byte	.LASF24
 1081 0234 01       		.byte	0x1
 1082 0235 23       		.byte	0x23
 1083 0236 41020000 		.4byte	0x241
ARM GAS  /cygdrive/c/DOCUME~1/mkwapisz/LOCALS~1/Temp/cce8X8VJ.s 			page 25


 1084 023a 01       		.byte	0x1
 1085 023b 05       		.byte	0x5
 1086 023c 03       		.byte	0x3
 1087 023d 00000000 		.4byte	empty
 1088 0241 11       		.uleb128 0x11
 1089 0242 1F020000 		.4byte	0x21f
 1090 0246 0E       		.uleb128 0xe
 1091 0247 56020000 		.4byte	0x256
 1092 024b 25000000 		.4byte	0x25
 1093 024f 0F       		.uleb128 0xf
 1094 0250 5A000000 		.4byte	0x5a
 1095 0254 07       		.byte	0x7
 1096 0255 00       		.byte	0x0
 1097 0256 10       		.uleb128 0x10
 1098 0257 EB000000 		.4byte	.LASF25
 1099 025b 01       		.byte	0x1
 1100 025c 25       		.byte	0x25
 1101 025d 46020000 		.4byte	0x246
 1102 0261 01       		.byte	0x1
 1103 0262 05       		.byte	0x5
 1104 0263 03       		.byte	0x3
 1105 0264 00000000 		.4byte	pattern
 1106 0268 10       		.uleb128 0x10
 1107 0269 70000000 		.4byte	.LASF26
 1108 026d 01       		.byte	0x1
 1109 026e 27       		.byte	0x27
 1110 026f 53000000 		.4byte	0x53
 1111 0273 01       		.byte	0x1
 1112 0274 05       		.byte	0x5
 1113 0275 03       		.byte	0x3
 1114 0276 00000000 		.4byte	state
 1115 027a 12       		.uleb128 0x12
 1116 027b BD000000 		.4byte	.LASF27
 1117 027f 01       		.byte	0x1
 1118 0280 41       		.byte	0x41
 1119 0281 53000000 		.4byte	0x53
 1120 0285 01       		.byte	0x1
 1121 0286 01       		.byte	0x1
 1122 0287 12       		.uleb128 0x12
 1123 0288 68010000 		.4byte	.LASF28
 1124 028c 01       		.byte	0x1
 1125 028d 42       		.byte	0x42
 1126 028e 53000000 		.4byte	0x53
 1127 0292 01       		.byte	0x1
 1128 0293 01       		.byte	0x1
 1129 0294 12       		.uleb128 0x12
 1130 0295 00000000 		.4byte	.LASF29
 1131 0299 01       		.byte	0x1
 1132 029a 43       		.byte	0x43
 1133 029b 53000000 		.4byte	0x53
 1134 029f 01       		.byte	0x1
 1135 02a0 01       		.byte	0x1
 1136 02a1 00       		.byte	0x0
 1137              		.section	.debug_abbrev
 1138 0000 01       		.uleb128 0x1
 1139 0001 11       		.uleb128 0x11
 1140 0002 01       		.byte	0x1
ARM GAS  /cygdrive/c/DOCUME~1/mkwapisz/LOCALS~1/Temp/cce8X8VJ.s 			page 26


 1141 0003 10       		.uleb128 0x10
 1142 0004 06       		.uleb128 0x6
 1143 0005 12       		.uleb128 0x12
 1144 0006 01       		.uleb128 0x1
 1145 0007 11       		.uleb128 0x11
 1146 0008 01       		.uleb128 0x1
 1147 0009 25       		.uleb128 0x25
 1148 000a 0E       		.uleb128 0xe
 1149 000b 13       		.uleb128 0x13
 1150 000c 0B       		.uleb128 0xb
 1151 000d 03       		.uleb128 0x3
 1152 000e 0E       		.uleb128 0xe
 1153 000f 1B       		.uleb128 0x1b
 1154 0010 0E       		.uleb128 0xe
 1155 0011 00       		.byte	0x0
 1156 0012 00       		.byte	0x0
 1157 0013 02       		.uleb128 0x2
 1158 0014 16       		.uleb128 0x16
 1159 0015 00       		.byte	0x0
 1160 0016 03       		.uleb128 0x3
 1161 0017 08       		.uleb128 0x8
 1162 0018 3A       		.uleb128 0x3a
 1163 0019 0B       		.uleb128 0xb
 1164 001a 3B       		.uleb128 0x3b
 1165 001b 0B       		.uleb128 0xb
 1166 001c 49       		.uleb128 0x49
 1167 001d 13       		.uleb128 0x13
 1168 001e 00       		.byte	0x0
 1169 001f 00       		.byte	0x0
 1170 0020 03       		.uleb128 0x3
 1171 0021 24       		.uleb128 0x24
 1172 0022 00       		.byte	0x0
 1173 0023 03       		.uleb128 0x3
 1174 0024 0E       		.uleb128 0xe
 1175 0025 0B       		.uleb128 0xb
 1176 0026 0B       		.uleb128 0xb
 1177 0027 3E       		.uleb128 0x3e
 1178 0028 0B       		.uleb128 0xb
 1179 0029 00       		.byte	0x0
 1180 002a 00       		.byte	0x0
 1181 002b 04       		.uleb128 0x4
 1182 002c 24       		.uleb128 0x24
 1183 002d 00       		.byte	0x0
 1184 002e 03       		.uleb128 0x3
 1185 002f 08       		.uleb128 0x8
 1186 0030 0B       		.uleb128 0xb
 1187 0031 0B       		.uleb128 0xb
 1188 0032 3E       		.uleb128 0x3e
 1189 0033 0B       		.uleb128 0xb
 1190 0034 00       		.byte	0x0
 1191 0035 00       		.byte	0x0
 1192 0036 05       		.uleb128 0x5
 1193 0037 2E       		.uleb128 0x2e
 1194 0038 00       		.byte	0x0
 1195 0039 3F       		.uleb128 0x3f
 1196 003a 0C       		.uleb128 0xc
 1197 003b 03       		.uleb128 0x3
ARM GAS  /cygdrive/c/DOCUME~1/mkwapisz/LOCALS~1/Temp/cce8X8VJ.s 			page 27


 1198 003c 0E       		.uleb128 0xe
 1199 003d 3A       		.uleb128 0x3a
 1200 003e 0B       		.uleb128 0xb
 1201 003f 3B       		.uleb128 0x3b
 1202 0040 0B       		.uleb128 0xb
 1203 0041 27       		.uleb128 0x27
 1204 0042 0C       		.uleb128 0xc
 1205 0043 20       		.uleb128 0x20
 1206 0044 0B       		.uleb128 0xb
 1207 0045 00       		.byte	0x0
 1208 0046 00       		.byte	0x0
 1209 0047 06       		.uleb128 0x6
 1210 0048 2E       		.uleb128 0x2e
 1211 0049 00       		.byte	0x0
 1212 004a 3F       		.uleb128 0x3f
 1213 004b 0C       		.uleb128 0xc
 1214 004c 03       		.uleb128 0x3
 1215 004d 0E       		.uleb128 0xe
 1216 004e 3A       		.uleb128 0x3a
 1217 004f 0B       		.uleb128 0xb
 1218 0050 3B       		.uleb128 0x3b
 1219 0051 0B       		.uleb128 0xb
 1220 0052 27       		.uleb128 0x27
 1221 0053 0C       		.uleb128 0xc
 1222 0054 11       		.uleb128 0x11
 1223 0055 01       		.uleb128 0x1
 1224 0056 12       		.uleb128 0x12
 1225 0057 01       		.uleb128 0x1
 1226 0058 40       		.uleb128 0x40
 1227 0059 0A       		.uleb128 0xa
 1228 005a 00       		.byte	0x0
 1229 005b 00       		.byte	0x0
 1230 005c 07       		.uleb128 0x7
 1231 005d 2E       		.uleb128 0x2e
 1232 005e 00       		.byte	0x0
 1233 005f 31       		.uleb128 0x31
 1234 0060 13       		.uleb128 0x13
 1235 0061 11       		.uleb128 0x11
 1236 0062 01       		.uleb128 0x1
 1237 0063 12       		.uleb128 0x12
 1238 0064 01       		.uleb128 0x1
 1239 0065 40       		.uleb128 0x40
 1240 0066 0A       		.uleb128 0xa
 1241 0067 00       		.byte	0x0
 1242 0068 00       		.byte	0x0
 1243 0069 08       		.uleb128 0x8
 1244 006a 2E       		.uleb128 0x2e
 1245 006b 01       		.byte	0x1
 1246 006c 01       		.uleb128 0x1
 1247 006d 13       		.uleb128 0x13
 1248 006e 3F       		.uleb128 0x3f
 1249 006f 0C       		.uleb128 0xc
 1250 0070 03       		.uleb128 0x3
 1251 0071 0E       		.uleb128 0xe
 1252 0072 3A       		.uleb128 0x3a
 1253 0073 0B       		.uleb128 0xb
 1254 0074 3B       		.uleb128 0x3b
ARM GAS  /cygdrive/c/DOCUME~1/mkwapisz/LOCALS~1/Temp/cce8X8VJ.s 			page 28


 1255 0075 0B       		.uleb128 0xb
 1256 0076 27       		.uleb128 0x27
 1257 0077 0C       		.uleb128 0xc
 1258 0078 11       		.uleb128 0x11
 1259 0079 01       		.uleb128 0x1
 1260 007a 12       		.uleb128 0x12
 1261 007b 01       		.uleb128 0x1
 1262 007c 40       		.uleb128 0x40
 1263 007d 0A       		.uleb128 0xa
 1264 007e 00       		.byte	0x0
 1265 007f 00       		.byte	0x0
 1266 0080 09       		.uleb128 0x9
 1267 0081 1D       		.uleb128 0x1d
 1268 0082 00       		.byte	0x0
 1269 0083 31       		.uleb128 0x31
 1270 0084 13       		.uleb128 0x13
 1271 0085 11       		.uleb128 0x11
 1272 0086 01       		.uleb128 0x1
 1273 0087 12       		.uleb128 0x12
 1274 0088 01       		.uleb128 0x1
 1275 0089 58       		.uleb128 0x58
 1276 008a 0B       		.uleb128 0xb
 1277 008b 59       		.uleb128 0x59
 1278 008c 0B       		.uleb128 0xb
 1279 008d 00       		.byte	0x0
 1280 008e 00       		.byte	0x0
 1281 008f 0A       		.uleb128 0xa
 1282 0090 2E       		.uleb128 0x2e
 1283 0091 00       		.byte	0x0
 1284 0092 3F       		.uleb128 0x3f
 1285 0093 0C       		.uleb128 0xc
 1286 0094 03       		.uleb128 0x3
 1287 0095 0E       		.uleb128 0xe
 1288 0096 3A       		.uleb128 0x3a
 1289 0097 0B       		.uleb128 0xb
 1290 0098 3B       		.uleb128 0x3b
 1291 0099 0B       		.uleb128 0xb
 1292 009a 27       		.uleb128 0x27
 1293 009b 0C       		.uleb128 0xc
 1294 009c 11       		.uleb128 0x11
 1295 009d 01       		.uleb128 0x1
 1296 009e 12       		.uleb128 0x12
 1297 009f 01       		.uleb128 0x1
 1298 00a0 40       		.uleb128 0x40
 1299 00a1 06       		.uleb128 0x6
 1300 00a2 00       		.byte	0x0
 1301 00a3 00       		.byte	0x0
 1302 00a4 0B       		.uleb128 0xb
 1303 00a5 2E       		.uleb128 0x2e
 1304 00a6 01       		.byte	0x1
 1305 00a7 01       		.uleb128 0x1
 1306 00a8 13       		.uleb128 0x13
 1307 00a9 3F       		.uleb128 0x3f
 1308 00aa 0C       		.uleb128 0xc
 1309 00ab 03       		.uleb128 0x3
 1310 00ac 0E       		.uleb128 0xe
 1311 00ad 3A       		.uleb128 0x3a
ARM GAS  /cygdrive/c/DOCUME~1/mkwapisz/LOCALS~1/Temp/cce8X8VJ.s 			page 29


 1312 00ae 0B       		.uleb128 0xb
 1313 00af 3B       		.uleb128 0x3b
 1314 00b0 0B       		.uleb128 0xb
 1315 00b1 27       		.uleb128 0x27
 1316 00b2 0C       		.uleb128 0xc
 1317 00b3 11       		.uleb128 0x11
 1318 00b4 01       		.uleb128 0x1
 1319 00b5 12       		.uleb128 0x12
 1320 00b6 01       		.uleb128 0x1
 1321 00b7 40       		.uleb128 0x40
 1322 00b8 06       		.uleb128 0x6
 1323 00b9 00       		.byte	0x0
 1324 00ba 00       		.byte	0x0
 1325 00bb 0C       		.uleb128 0xc
 1326 00bc 34       		.uleb128 0x34
 1327 00bd 00       		.byte	0x0
 1328 00be 03       		.uleb128 0x3
 1329 00bf 0E       		.uleb128 0xe
 1330 00c0 3A       		.uleb128 0x3a
 1331 00c1 0B       		.uleb128 0xb
 1332 00c2 3B       		.uleb128 0x3b
 1333 00c3 0B       		.uleb128 0xb
 1334 00c4 49       		.uleb128 0x49
 1335 00c5 13       		.uleb128 0x13
 1336 00c6 00       		.byte	0x0
 1337 00c7 00       		.byte	0x0
 1338 00c8 0D       		.uleb128 0xd
 1339 00c9 0B       		.uleb128 0xb
 1340 00ca 01       		.byte	0x1
 1341 00cb 11       		.uleb128 0x11
 1342 00cc 01       		.uleb128 0x1
 1343 00cd 12       		.uleb128 0x12
 1344 00ce 01       		.uleb128 0x1
 1345 00cf 00       		.byte	0x0
 1346 00d0 00       		.byte	0x0
 1347 00d1 0E       		.uleb128 0xe
 1348 00d2 01       		.uleb128 0x1
 1349 00d3 01       		.byte	0x1
 1350 00d4 01       		.uleb128 0x1
 1351 00d5 13       		.uleb128 0x13
 1352 00d6 49       		.uleb128 0x49
 1353 00d7 13       		.uleb128 0x13
 1354 00d8 00       		.byte	0x0
 1355 00d9 00       		.byte	0x0
 1356 00da 0F       		.uleb128 0xf
 1357 00db 21       		.uleb128 0x21
 1358 00dc 00       		.byte	0x0
 1359 00dd 49       		.uleb128 0x49
 1360 00de 13       		.uleb128 0x13
 1361 00df 2F       		.uleb128 0x2f
 1362 00e0 0B       		.uleb128 0xb
 1363 00e1 00       		.byte	0x0
 1364 00e2 00       		.byte	0x0
 1365 00e3 10       		.uleb128 0x10
 1366 00e4 34       		.uleb128 0x34
 1367 00e5 00       		.byte	0x0
 1368 00e6 03       		.uleb128 0x3
ARM GAS  /cygdrive/c/DOCUME~1/mkwapisz/LOCALS~1/Temp/cce8X8VJ.s 			page 30


 1369 00e7 0E       		.uleb128 0xe
 1370 00e8 3A       		.uleb128 0x3a
 1371 00e9 0B       		.uleb128 0xb
 1372 00ea 3B       		.uleb128 0x3b
 1373 00eb 0B       		.uleb128 0xb
 1374 00ec 49       		.uleb128 0x49
 1375 00ed 13       		.uleb128 0x13
 1376 00ee 3F       		.uleb128 0x3f
 1377 00ef 0C       		.uleb128 0xc
 1378 00f0 02       		.uleb128 0x2
 1379 00f1 0A       		.uleb128 0xa
 1380 00f2 00       		.byte	0x0
 1381 00f3 00       		.byte	0x0
 1382 00f4 11       		.uleb128 0x11
 1383 00f5 26       		.uleb128 0x26
 1384 00f6 00       		.byte	0x0
 1385 00f7 49       		.uleb128 0x49
 1386 00f8 13       		.uleb128 0x13
 1387 00f9 00       		.byte	0x0
 1388 00fa 00       		.byte	0x0
 1389 00fb 12       		.uleb128 0x12
 1390 00fc 34       		.uleb128 0x34
 1391 00fd 00       		.byte	0x0
 1392 00fe 03       		.uleb128 0x3
 1393 00ff 0E       		.uleb128 0xe
 1394 0100 3A       		.uleb128 0x3a
 1395 0101 0B       		.uleb128 0xb
 1396 0102 3B       		.uleb128 0x3b
 1397 0103 0B       		.uleb128 0xb
 1398 0104 49       		.uleb128 0x49
 1399 0105 13       		.uleb128 0x13
 1400 0106 3F       		.uleb128 0x3f
 1401 0107 0C       		.uleb128 0xc
 1402 0108 3C       		.uleb128 0x3c
 1403 0109 0C       		.uleb128 0xc
 1404 010a 00       		.byte	0x0
 1405 010b 00       		.byte	0x0
 1406 010c 00       		.byte	0x0
 1407              		.section	.debug_pubnames,"",%progbits
 1408 0000 BD000000 		.4byte	0xbd
 1409 0004 0200     		.2byte	0x2
 1410 0006 00000000 		.4byte	.Ldebug_info0
 1411 000a A2020000 		.4byte	0x2a2
 1412 000e A2000000 		.4byte	0xa2
 1413 0012 696E6974 		.ascii	"initTimer1\000"
 1413      54696D65 
 1413      723100
 1414 001d B5000000 		.4byte	0xb5
 1415 0021 73657475 		.ascii	"setupPLL\000"
 1415      70504C4C 
 1415      00
 1416 002a C4000000 		.4byte	0xc4
 1417 002e 66656564 		.ascii	"feedSeq\000"
 1417      53657100 
 1418 0036 D3000000 		.4byte	0xd3
 1419 003a 636F6E6E 		.ascii	"connectPLL\000"
 1419      65637450 
ARM GAS  /cygdrive/c/DOCUME~1/mkwapisz/LOCALS~1/Temp/cce8X8VJ.s 			page 31


 1419      4C4C00
 1420 0045 E2000000 		.4byte	0xe2
 1421 0049 696E6974 		.ascii	"initClocks\000"
 1421      436C6F63 
 1421      6B7300
 1422 0054 36010000 		.4byte	0x136
 1423 0058 74696D65 		.ascii	"timer\000"
 1423      7200
 1424 005e 4B010000 		.4byte	0x14b
 1425 0062 74657374 		.ascii	"testLedMatrix\000"
 1425      4C65644D 
 1425      61747269 
 1425      7800
 1426 0070 85010000 		.4byte	0x185
 1427 0074 54314953 		.ascii	"T1ISR\000"
 1427      5200
 1428 007a BA010000 		.4byte	0x1ba
 1429 007e 6B6F6C6B 		.ascii	"kolko\000"
 1429      6F00
 1430 0084 E1010000 		.4byte	0x1e1
 1431 0088 6B727A79 		.ascii	"krzyzyk\000"
 1431      7A796B00 
 1432 0090 08020000 		.4byte	0x208
 1433 0094 6B727A79 		.ascii	"krzyzyk2\000"
 1433      7A796B32 
 1433      00
 1434 009d 2F020000 		.4byte	0x22f
 1435 00a1 656D7074 		.ascii	"empty\000"
 1435      7900
 1436 00a7 56020000 		.4byte	0x256
 1437 00ab 70617474 		.ascii	"pattern\000"
 1437      65726E00 
 1438 00b3 68020000 		.4byte	0x268
 1439 00b7 73746174 		.ascii	"state\000"
 1439      6500
 1440 00bd 00000000 		.4byte	0x0
 1441              		.section	.debug_aranges,"",%progbits
 1442 0000 1C000000 		.4byte	0x1c
 1443 0004 0200     		.2byte	0x2
 1444 0006 00000000 		.4byte	.Ldebug_info0
 1445 000a 04       		.byte	0x4
 1446 000b 00       		.byte	0x0
 1447 000c 0000     		.2byte	0x0
 1448 000e 0000     		.2byte	0x0
 1449 0010 00000000 		.4byte	.Ltext0
 1450 0014 DC020000 		.4byte	.Letext0-.Ltext0
 1451 0018 00000000 		.4byte	0x0
 1452 001c 00000000 		.4byte	0x0
 1453              		.section	.debug_str,"MS",%progbits,1
 1454              	.LASF29:
 1455 0000 73686F77 		.ascii	"showResult\000"
 1455      52657375 
 1455      6C7400
 1456              	.LASF24:
 1457 000b 656D7074 		.ascii	"empty\000"
 1457      7900
 1458              	.LASF3:
ARM GAS  /cygdrive/c/DOCUME~1/mkwapisz/LOCALS~1/Temp/cce8X8VJ.s 			page 32


 1459 0011 7369676E 		.ascii	"signed char\000"
 1459      65642063 
 1459      68617200 
 1460              	.LASF19:
 1461 001d 54314953 		.ascii	"T1ISR\000"
 1461      5200
 1462              	.LASF13:
 1463 0023 696E6974 		.ascii	"initTimer1\000"
 1463      54696D65 
 1463      723100
 1464              	.LASF9:
 1465 002e 6C6F6E67 		.ascii	"long long unsigned int\000"
 1465      206C6F6E 
 1465      6720756E 
 1465      7369676E 
 1465      65642069 
 1466              	.LASF11:
 1467 0045 66656564 		.ascii	"feedSeq\000"
 1467      53657100 
 1468              	.LASF7:
 1469 004d 6C6F6E67 		.ascii	"long long int\000"
 1469      206C6F6E 
 1469      6720696E 
 1469      7400
 1470              	.LASF31:
 1471 005b 74657374 		.ascii	"testLedMatrix.c\000"
 1471      4C65644D 
 1471      61747269 
 1471      782E6300 
 1472              	.LASF17:
 1473 006b 636E7441 		.ascii	"cntA\000"
 1473      00
 1474              	.LASF26:
 1475 0070 73746174 		.ascii	"state\000"
 1475      6500
 1476              	.LASF15:
 1477 0076 696E6974 		.ascii	"initClocks\000"
 1477      436C6F63 
 1477      6B7300
 1478              	.LASF6:
 1479 0081 6C6F6E67 		.ascii	"long int\000"
 1479      20696E74 
 1479      00
 1480              	.LASF12:
 1481 008a 636F6E6E 		.ascii	"connectPLL\000"
 1481      65637450 
 1481      4C4C00
 1482              	.LASF10:
 1483 0095 73657475 		.ascii	"setupPLL\000"
 1483      70504C4C 
 1483      00
 1484              	.LASF2:
 1485 009e 756E7369 		.ascii	"unsigned int\000"
 1485      676E6564 
 1485      20696E74 
 1485      00
 1486              	.LASF5:
ARM GAS  /cygdrive/c/DOCUME~1/mkwapisz/LOCALS~1/Temp/cce8X8VJ.s 			page 33


 1487 00ab 6C6F6E67 		.ascii	"long unsigned int\000"
 1487      20756E73 
 1487      69676E65 
 1487      6420696E 
 1487      7400
 1488              	.LASF27:
 1489 00bd 74696D65 		.ascii	"timerCnt\000"
 1489      72436E74 
 1489      00
 1490              	.LASF1:
 1491 00c6 73686F72 		.ascii	"short unsigned int\000"
 1491      7420756E 
 1491      7369676E 
 1491      65642069 
 1491      6E7400
 1492              	.LASF21:
 1493 00d9 6B6F6C6B 		.ascii	"kolko\000"
 1493      6F00
 1494              	.LASF18:
 1495 00df 7A6E616B 		.ascii	"znak\000"
 1495      00
 1496              	.LASF20:
 1497 00e4 72656756 		.ascii	"regVal\000"
 1497      616C00
 1498              	.LASF25:
 1499 00eb 70617474 		.ascii	"pattern\000"
 1499      65726E00 
 1500              	.LASF0:
 1501 00f3 756E7369 		.ascii	"unsigned char\000"
 1501      676E6564 
 1501      20636861 
 1501      7200
 1502              	.LASF30:
 1503 0101 474E5520 		.ascii	"GNU C 4.1.1\000"
 1503      4320342E 
 1503      312E3100 
 1504              	.LASF4:
 1505 010d 73686F72 		.ascii	"short int\000"
 1505      7420696E 
 1505      7400
 1506              	.LASF16:
 1507 0117 74657374 		.ascii	"testLedMatrix\000"
 1507      4C65644D 
 1507      61747269 
 1507      7800
 1508              	.LASF23:
 1509 0125 6B727A79 		.ascii	"krzyzyk2\000"
 1509      7A796B32 
 1509      00
 1510              	.LASF8:
 1511 012e 63686172 		.ascii	"char\000"
 1511      00
 1512              	.LASF22:
 1513 0133 6B727A79 		.ascii	"krzyzyk\000"
 1513      7A796B00 
 1514              	.LASF32:
 1515 013b 2F637967 		.ascii	"/cygdrive/c/Embedded/eclipse/Demo/2138\000"
ARM GAS  /cygdrive/c/DOCUME~1/mkwapisz/LOCALS~1/Temp/cce8X8VJ.s 			page 34


 1515      64726976 
 1515      652F632F 
 1515      456D6265 
 1515      64646564 
 1516              	.LASF14:
 1517 0162 74696D65 		.ascii	"timer\000"
 1517      7200
 1518              	.LASF28:
 1519 0168 6C696665 		.ascii	"lifes\000"
 1519      7300
 1520              		.ident	"GCC: (GNU) 4.1.1"
ARM GAS  /cygdrive/c/DOCUME~1/mkwapisz/LOCALS~1/Temp/cce8X8VJ.s 			page 35


DEFINED SYMBOLS
                            *ABS*:00000000 testLedMatrix.c
/cygdrive/c/DOCUME~1/mkwapisz/LOCALS~1/Temp/cce8X8VJ.s:1      .text:00000000 $t
/cygdrive/c/DOCUME~1/mkwapisz/LOCALS~1/Temp/cce8X8VJ.s:16     .text:00000000 initTimer1
/cygdrive/c/DOCUME~1/mkwapisz/LOCALS~1/Temp/cce8X8VJ.s:69     .text:00000040 $d
/cygdrive/c/DOCUME~1/mkwapisz/LOCALS~1/Temp/cce8X8VJ.s:590    .text:000002bc T1ISR
/cygdrive/c/DOCUME~1/mkwapisz/LOCALS~1/Temp/cce8X8VJ.s:84     .text:00000060 setupPLL
/cygdrive/c/DOCUME~1/mkwapisz/LOCALS~1/Temp/cce8X8VJ.s:81     .text:00000060 $t
/cygdrive/c/DOCUME~1/mkwapisz/LOCALS~1/Temp/cce8X8VJ.s:104    .text:00000070 $d
/cygdrive/c/DOCUME~1/mkwapisz/LOCALS~1/Temp/cce8X8VJ.s:112    .text:00000074 feedSeq
/cygdrive/c/DOCUME~1/mkwapisz/LOCALS~1/Temp/cce8X8VJ.s:109    .text:00000074 $t
/cygdrive/c/DOCUME~1/mkwapisz/LOCALS~1/Temp/cce8X8VJ.s:131    .text:00000080 $d
/cygdrive/c/DOCUME~1/mkwapisz/LOCALS~1/Temp/cce8X8VJ.s:139    .text:00000084 connectPLL
/cygdrive/c/DOCUME~1/mkwapisz/LOCALS~1/Temp/cce8X8VJ.s:136    .text:00000084 $t
/cygdrive/c/DOCUME~1/mkwapisz/LOCALS~1/Temp/cce8X8VJ.s:161    .text:00000098 $d
/cygdrive/c/DOCUME~1/mkwapisz/LOCALS~1/Temp/cce8X8VJ.s:170    .text:000000a0 initClocks
/cygdrive/c/DOCUME~1/mkwapisz/LOCALS~1/Temp/cce8X8VJ.s:167    .text:000000a0 $t
/cygdrive/c/DOCUME~1/mkwapisz/LOCALS~1/Temp/cce8X8VJ.s:235    .text:000000dc $d
/cygdrive/c/DOCUME~1/mkwapisz/LOCALS~1/Temp/cce8X8VJ.s:246    .text:000000ec timer
/cygdrive/c/DOCUME~1/mkwapisz/LOCALS~1/Temp/cce8X8VJ.s:243    .text:000000ec $t
/cygdrive/c/DOCUME~1/mkwapisz/LOCALS~1/Temp/cce8X8VJ.s:266    .text:00000100 $d
/cygdrive/c/DOCUME~1/mkwapisz/LOCALS~1/Temp/cce8X8VJ.s:280    .text:00000104 testLedMatrix
/cygdrive/c/DOCUME~1/mkwapisz/LOCALS~1/Temp/cce8X8VJ.s:277    .text:00000104 $t
/cygdrive/c/DOCUME~1/mkwapisz/LOCALS~1/Temp/cce8X8VJ.s:571    .text:00000290 $d
/cygdrive/c/DOCUME~1/mkwapisz/LOCALS~1/Temp/cce8X8VJ.s:673    .bss:00000008 state
/cygdrive/c/DOCUME~1/mkwapisz/LOCALS~1/Temp/cce8X8VJ.s:667    .bss:00000000 pattern
/cygdrive/c/DOCUME~1/mkwapisz/LOCALS~1/Temp/cce8X8VJ.s:587    .text:000002bc $t
/cygdrive/c/DOCUME~1/mkwapisz/LOCALS~1/Temp/cce8X8VJ.s:617    .text:000002d4 $d
/cygdrive/c/DOCUME~1/mkwapisz/LOCALS~1/Temp/cce8X8VJ.s:625    .rodata:00000000 kolko
/cygdrive/c/DOCUME~1/mkwapisz/LOCALS~1/Temp/cce8X8VJ.s:637    .rodata:00000008 krzyzyk
/cygdrive/c/DOCUME~1/mkwapisz/LOCALS~1/Temp/cce8X8VJ.s:649    .rodata:00000010 krzyzyk2
/cygdrive/c/DOCUME~1/mkwapisz/LOCALS~1/Temp/cce8X8VJ.s:661    .rodata:00000018 empty
                             .bss:00000000 $d

UNDEFINED SYMBOLS
__modsi3
srand
rand
testRGB
simplePrintf
osSleep
lifes
timerCnt
showResult
ledMatrix
