ARM GAS  /cygdrive/c/DOCUME~1/mkwapisz/LOCALS~1/Temp/ccbI3Shd.s 			page 1


   1              		.code	16
   2              		.file	"testRGB.c"
   3              		.section	.debug_abbrev,"",%progbits
   4              	.Ldebug_abbrev0:
   5              		.section	.debug_info,"",%progbits
   6              	.Ldebug_info0:
   7              		.section	.debug_line,"",%progbits
   8              	.Ldebug_line0:
   9 0000 7C000000 		.text
   9      02005400 
   9      00000201 
   9      FB0E0D00 
   9      01010101 
  10              	.Ltext0:
  11              		.align	2
  12              		.global	testRGB
  13              		.code 16
  14              		.thumb_func
  15              		.type	testRGB, %function
  16              	testRGB:
  17              	.LFB2:
  18              		.file 1 "testRGB.c"
   1:testRGB.c     **** /******************************************************************************
   2:testRGB.c     ****  *
   3:testRGB.c     ****  * Copyright:
   4:testRGB.c     ****  *    (C) 2000 - 2005 Embedded Artists AB
   5:testRGB.c     ****  *
   6:testRGB.c     ****  *****************************************************************************/
   7:testRGB.c     **** 
   8:testRGB.c     **** 
   9:testRGB.c     **** #include "../pre_emptive_os/api/osapi.h"
  10:testRGB.c     **** #include "../pre_emptive_os/api/general.h"
  11:testRGB.c     **** #include <printf_P.h>
  12:testRGB.c     **** #include <lpc2xxx.h>
  13:testRGB.c     **** 
  14:testRGB.c     **** /*****************************************************************************
  15:testRGB.c     ****  *
  16:testRGB.c     ****  * Description:
  17:testRGB.c     ****  *    A process entry function. 
  18:testRGB.c     ****  *
  19:testRGB.c     ****  ****************************************************************************/
  20:testRGB.c     **** void
  21:testRGB.c     **** testRGB(tU8 r, tU8 g, tU8 b)
  22:testRGB.c     **** {
  19              		.loc 1 22 0
  20 0000 30B5     		push	{r4, r5, lr}
  21              	.LCFI0:
  22              	.LVL0:
  23              		.loc 1 22 0
  24 0002 0906     		lsl	r1, r1, #24
  25              	.LVL1:
  26 0004 0D0E     		lsr	r5, r1, #24
  27              	.LVL2:
  23:testRGB.c     ****   PINSEL0 &= 0xfff03fff;  //Enable PWM2 on P0.7, PWM4 on P0.8, and PWM6 on P0.9
  28              		.loc 1 23 0
  29 0006 1749     		ldr	r1, .L8
  30              		.loc 1 22 0
ARM GAS  /cygdrive/c/DOCUME~1/mkwapisz/LOCALS~1/Temp/ccbI3Shd.s 			page 2


  31 0008 1206     		lsl	r2, r2, #24
  32              	.LVL3:
  33              		.loc 1 23 0
  34 000a 0B68     		ldr	r3, [r1]
  35              		.loc 1 22 0
  36 000c 140E     		lsr	r4, r2, #24
  37              	.LVL4:
  38              		.loc 1 23 0
  39 000e 164A     		ldr	r2, .L8+4
  40              		.loc 1 22 0
  41 0010 0006     		lsl	r0, r0, #24
  42              	.LVL5:
  43              		.loc 1 23 0
  44 0012 1340     		and	r3, r3, r2
  45 0014 0B60     		str	r3, [r1]
  24:testRGB.c     ****   /*PINSEL0 |= 0x000a8000; //Enable PWM2 on P0.7, PWM4 on P0.8, and PWM6 on P0.9
  25:testRGB.c     **** 
  26:testRGB.c     ****   //PULSE WIDTH MODULATION INIT*********************************************
  27:testRGB.c     ****   PWM_PR  = 0x00;    // Prescale Register
  28:testRGB.c     ****   PWM_MCR = 0x02;    // Match Control Register
  29:testRGB.c     ****   PWM_MR0 = 0x1000;    // TOTAL PERIODTID   T
  30:testRGB.c     ****   PWM_MR2 = 0x000;
  31:testRGB.c     ****   PWM_LER = 0x05;*/
  32:testRGB.c     ****   if(r == 0 && g == 0 && b ==0)
  46              		.loc 1 32 0
  47 0016 0028     		cmp	r0, #0
  48 0018 06D1     		bne	.L2
  49 001a 002D     		cmp	r5, #0
  50 001c 04D1     		bne	.L2
  51 001e 002C     		cmp	r4, #0
  52 0020 02D1     		bne	.L2
  33:testRGB.c     ****   {
  34:testRGB.c     **** 	  PINSEL0 |= 0x00000000;
  53              		.loc 1 34 0
  54 0022 0B68     		ldr	r3, [r1]
  55 0024 0B60     		str	r3, [r1]
  56 0026 05E0     		b	.L6
  57              	.L2:
  35:testRGB.c     ****   }
  36:testRGB.c     ****   else
  37:testRGB.c     ****   {
  38:testRGB.c     **** 	  PINSEL0 |= 0x000a0000; //Enable PWM2 on P0.7, PWM4 on P0.8, and PWM6 on P0.9
  58              		.loc 1 38 0
  59 0028 0E49     		ldr	r1, .L8
  60 002a A023     		mov	r3, #160
  61 002c 0A68     		ldr	r2, [r1]
  62 002e 1B03     		lsl	r3, r3, #12
  63 0030 1A43     		orr	r2, r2, r3
  64 0032 0A60     		str	r2, [r1]
  65              	.L6:
  39:testRGB.c     ****   }
  40:testRGB.c     ****   PWM_MR2 = 0x0000;
  66              		.loc 1 40 0
  67 0034 0D4B     		ldr	r3, .L8+8
  68 0036 0022     		mov	r2, #0
  69 0038 1A60     		str	r2, [r3]
  41:testRGB.c     ****   PWM_MR4 = b * 3;    // HÖG SIGNAL        t
ARM GAS  /cygdrive/c/DOCUME~1/mkwapisz/LOCALS~1/Temp/ccbI3Shd.s 			page 3


  70              		.loc 1 41 0
  71 003a 6300     		lsl	r3, r4, #1
  72 003c 0C4A     		ldr	r2, .L8+12
  73 003e 1B19     		add	r3, r3, r4
  74 0040 1360     		str	r3, [r2]
  42:testRGB.c     ****   PWM_MR6 = g * 3;    // HÖG SIGNAL        t
  75              		.loc 1 42 0
  76 0042 6B00     		lsl	r3, r5, #1
  77 0044 5B19     		add	r3, r3, r5
  78 0046 0832     		add	r2, r2, #8
  79 0048 1360     		str	r3, [r2]
  43:testRGB.c     ****   PWM_LER = 0x51;    // Latch Enable Register
  80              		.loc 1 43 0
  81 004a 0A4B     		ldr	r3, .L8+16
  82 004c 5122     		mov	r2, #81
  83 004e 1A60     		str	r2, [r3]
  44:testRGB.c     ****   PWM_PCR = 0x5400;  // Prescale Counter Register PWMENA2, PWMENA4, PWMENA6
  84              		.loc 1 44 0
  85 0050 094A     		ldr	r2, .L8+20
  86 0052 A823     		mov	r3, #168
  87 0054 DB01     		lsl	r3, r3, #7
  88 0056 1360     		str	r3, [r2]
  45:testRGB.c     ****   PWM_TCR = 0x09;    // Counter Enable och PWM Enable
  89              		.loc 1 45 0
  90 0058 084B     		ldr	r3, .L8+24
  91 005a 0922     		mov	r2, #9
  92 005c 1A60     		str	r2, [r3]
  46:testRGB.c     ****   //************************************************************************ 
  47:testRGB.c     **** 
  48:testRGB.c     **** }
  93              		.loc 1 48 0
  94              		@ sp needed for prologue
  95              	.LVL6:
  96              	.LVL7:
  97 005e 30BC     		pop	{r4, r5}
  98 0060 01BC     		pop	{r0}
  99 0062 0047     		bx	r0
 100              	.L9:
 101              		.align	2
 102              	.L8:
 103 0064 00C002E0 		.word	-536690688
 104 0068 FF3FF0FF 		.word	-1032193
 105 006c 204001E0 		.word	-536788960
 106 0070 404001E0 		.word	-536788928
 107 0074 504001E0 		.word	-536788912
 108 0078 4C4001E0 		.word	-536788916
 109 007c 044001E0 		.word	-536788988
 110              	.LFE2:
 111              		.size	testRGB, .-testRGB
 112              		.section	.debug_frame,"",%progbits
 113              	.Lframe0:
 114 0000 0C000000 		.4byte	.LECIE0-.LSCIE0
 115              	.LSCIE0:
 116 0004 FFFFFFFF 		.4byte	0xffffffff
 117 0008 01       		.byte	0x1
 118 0009 00       		.ascii	"\000"
 119 000a 01       		.uleb128 0x1
ARM GAS  /cygdrive/c/DOCUME~1/mkwapisz/LOCALS~1/Temp/ccbI3Shd.s 			page 4


 120 000b 7C       		.sleb128 -4
 121 000c 0E       		.byte	0xe
 122 000d 0C       		.byte	0xc
 123 000e 0D       		.uleb128 0xd
 124 000f 00       		.uleb128 0x0
 125              		.align	2
 126              	.LECIE0:
 127              	.LSFDE0:
 128 0010 18000000 		.4byte	.LEFDE0-.LASFDE0
 129              	.LASFDE0:
 130 0014 00000000 		.4byte	.Lframe0
 131 0018 00000000 		.4byte	.LFB2
 132 001c 80000000 		.4byte	.LFE2-.LFB2
 133 0020 42       		.byte	0x4
 134              		.4byte	.LCFI0-.LFB2
 135 0021 0E       		.byte	0xe
 136 0022 0C       		.uleb128 0xc
 137 0023 84       		.byte	0x84
 138 0024 03       		.uleb128 0x3
 139 0025 85       		.byte	0x85
 140 0026 02       		.uleb128 0x2
 141 0027 8E       		.byte	0x8e
 142 0028 01       		.uleb128 0x1
 143 0029 000000   		.align	2
 144              	.LEFDE0:
 145              		.file 2 "./startup/../pre_emptive_os/api/../api/general.h"
 146              		.text
 147              	.Letext0:
 148              		.section	.debug_loc,"",%progbits
 149              	.Ldebug_loc0:
 150              	.LLST0:
 151 0000 00000000 		.4byte	.LFB2-.Ltext0
 152 0004 02000000 		.4byte	.LCFI0-.Ltext0
 153 0008 0100     		.2byte	0x1
 154 000a 5D       		.byte	0x5d
 155 000b 02000000 		.4byte	.LCFI0-.Ltext0
 156 000f 80000000 		.4byte	.LFE2-.Ltext0
 157 0013 0200     		.2byte	0x2
 158 0015 7D       		.byte	0x7d
 159 0016 0C       		.sleb128 12
 160 0017 00000000 		.4byte	0x0
 161 001b 00000000 		.4byte	0x0
 162              	.LLST1:
 163 001f 02000000 		.4byte	.LVL0-.Ltext0
 164 0023 12000000 		.4byte	.LVL5-.Ltext0
 165 0027 0100     		.2byte	0x1
 166 0029 50       		.byte	0x50
 167 002a 00000000 		.4byte	0x0
 168 002e 00000000 		.4byte	0x0
 169              	.LLST2:
 170 0032 02000000 		.4byte	.LVL0-.Ltext0
 171 0036 04000000 		.4byte	.LVL1-.Ltext0
 172 003a 0100     		.2byte	0x1
 173 003c 51       		.byte	0x51
 174 003d 06000000 		.4byte	.LVL2-.Ltext0
 175 0041 5E000000 		.4byte	.LVL7-.Ltext0
 176 0045 0100     		.2byte	0x1
ARM GAS  /cygdrive/c/DOCUME~1/mkwapisz/LOCALS~1/Temp/ccbI3Shd.s 			page 5


 177 0047 55       		.byte	0x55
 178 0048 00000000 		.4byte	0x0
 179 004c 00000000 		.4byte	0x0
 180              	.LLST3:
 181 0050 02000000 		.4byte	.LVL0-.Ltext0
 182 0054 0A000000 		.4byte	.LVL3-.Ltext0
 183 0058 0100     		.2byte	0x1
 184 005a 52       		.byte	0x52
 185 005b 0E000000 		.4byte	.LVL4-.Ltext0
 186 005f 5E000000 		.4byte	.LVL6-.Ltext0
 187 0063 0100     		.2byte	0x1
 188 0065 54       		.byte	0x54
 189 0066 00000000 		.4byte	0x0
 190 006a 00000000 		.4byte	0x0
 191              		.section	.debug_info
 192 0000 9B000000 		.4byte	0x9b
 193 0004 0200     		.2byte	0x2
 194 0006 00000000 		.4byte	.Ldebug_abbrev0
 195 000a 04       		.byte	0x4
 196 000b 01       		.uleb128 0x1
 197 000c 00000000 		.4byte	.Ldebug_line0
 198 0010 80000000 		.4byte	.Letext0
 199 0014 00000000 		.4byte	.Ltext0
 200 0018 48000000 		.4byte	.LASF6
 201 001c 01       		.byte	0x1
 202 001d 91000000 		.4byte	.LASF7
 203 0021 5E000000 		.4byte	.LASF8
 204 0025 02       		.uleb128 0x2
 205 0026 74553800 		.ascii	"tU8\000"
 206 002a 02       		.byte	0x2
 207 002b 47       		.byte	0x47
 208 002c 30000000 		.4byte	0x30
 209 0030 03       		.uleb128 0x3
 210 0031 00000000 		.4byte	.LASF0
 211 0035 01       		.byte	0x1
 212 0036 08       		.byte	0x8
 213 0037 03       		.uleb128 0x3
 214 0038 20000000 		.4byte	.LASF1
 215 003c 02       		.byte	0x2
 216 003d 07       		.byte	0x7
 217 003e 03       		.uleb128 0x3
 218 003f 3B000000 		.4byte	.LASF2
 219 0043 04       		.byte	0x4
 220 0044 07       		.byte	0x7
 221 0045 03       		.uleb128 0x3
 222 0046 85000000 		.4byte	.LASF3
 223 004a 01       		.byte	0x1
 224 004b 06       		.byte	0x6
 225 004c 03       		.uleb128 0x3
 226 004d 54000000 		.4byte	.LASF4
 227 0051 02       		.byte	0x2
 228 0052 05       		.byte	0x5
 229 0053 04       		.uleb128 0x4
 230 0054 696E7400 		.ascii	"int\000"
 231 0058 04       		.byte	0x4
 232 0059 05       		.byte	0x5
 233 005a 03       		.uleb128 0x3
ARM GAS  /cygdrive/c/DOCUME~1/mkwapisz/LOCALS~1/Temp/ccbI3Shd.s 			page 6


 234 005b 0E000000 		.4byte	.LASF5
 235 005f 04       		.byte	0x4
 236 0060 07       		.byte	0x7
 237 0061 05       		.uleb128 0x5
 238 0062 01       		.byte	0x1
 239 0063 33000000 		.4byte	.LASF9
 240 0067 01       		.byte	0x1
 241 0068 16       		.byte	0x16
 242 0069 01       		.byte	0x1
 243 006a 00000000 		.4byte	.LFB2
 244 006e 80000000 		.4byte	.LFE2
 245 0072 00000000 		.4byte	.LLST0
 246 0076 06       		.uleb128 0x6
 247 0077 7200     		.ascii	"r\000"
 248 0079 01       		.byte	0x1
 249 007a 15       		.byte	0x15
 250 007b 25000000 		.4byte	0x25
 251 007f 1F000000 		.4byte	.LLST1
 252 0083 06       		.uleb128 0x6
 253 0084 6700     		.ascii	"g\000"
 254 0086 01       		.byte	0x1
 255 0087 15       		.byte	0x15
 256 0088 25000000 		.4byte	0x25
 257 008c 32000000 		.4byte	.LLST2
 258 0090 06       		.uleb128 0x6
 259 0091 6200     		.ascii	"b\000"
 260 0093 01       		.byte	0x1
 261 0094 15       		.byte	0x15
 262 0095 25000000 		.4byte	0x25
 263 0099 50000000 		.4byte	.LLST3
 264 009d 00       		.byte	0x0
 265 009e 00       		.byte	0x0
 266              		.section	.debug_abbrev
 267 0000 01       		.uleb128 0x1
 268 0001 11       		.uleb128 0x11
 269 0002 01       		.byte	0x1
 270 0003 10       		.uleb128 0x10
 271 0004 06       		.uleb128 0x6
 272 0005 12       		.uleb128 0x12
 273 0006 01       		.uleb128 0x1
 274 0007 11       		.uleb128 0x11
 275 0008 01       		.uleb128 0x1
 276 0009 25       		.uleb128 0x25
 277 000a 0E       		.uleb128 0xe
 278 000b 13       		.uleb128 0x13
 279 000c 0B       		.uleb128 0xb
 280 000d 03       		.uleb128 0x3
 281 000e 0E       		.uleb128 0xe
 282 000f 1B       		.uleb128 0x1b
 283 0010 0E       		.uleb128 0xe
 284 0011 00       		.byte	0x0
 285 0012 00       		.byte	0x0
 286 0013 02       		.uleb128 0x2
 287 0014 16       		.uleb128 0x16
 288 0015 00       		.byte	0x0
 289 0016 03       		.uleb128 0x3
 290 0017 08       		.uleb128 0x8
ARM GAS  /cygdrive/c/DOCUME~1/mkwapisz/LOCALS~1/Temp/ccbI3Shd.s 			page 7


 291 0018 3A       		.uleb128 0x3a
 292 0019 0B       		.uleb128 0xb
 293 001a 3B       		.uleb128 0x3b
 294 001b 0B       		.uleb128 0xb
 295 001c 49       		.uleb128 0x49
 296 001d 13       		.uleb128 0x13
 297 001e 00       		.byte	0x0
 298 001f 00       		.byte	0x0
 299 0020 03       		.uleb128 0x3
 300 0021 24       		.uleb128 0x24
 301 0022 00       		.byte	0x0
 302 0023 03       		.uleb128 0x3
 303 0024 0E       		.uleb128 0xe
 304 0025 0B       		.uleb128 0xb
 305 0026 0B       		.uleb128 0xb
 306 0027 3E       		.uleb128 0x3e
 307 0028 0B       		.uleb128 0xb
 308 0029 00       		.byte	0x0
 309 002a 00       		.byte	0x0
 310 002b 04       		.uleb128 0x4
 311 002c 24       		.uleb128 0x24
 312 002d 00       		.byte	0x0
 313 002e 03       		.uleb128 0x3
 314 002f 08       		.uleb128 0x8
 315 0030 0B       		.uleb128 0xb
 316 0031 0B       		.uleb128 0xb
 317 0032 3E       		.uleb128 0x3e
 318 0033 0B       		.uleb128 0xb
 319 0034 00       		.byte	0x0
 320 0035 00       		.byte	0x0
 321 0036 05       		.uleb128 0x5
 322 0037 2E       		.uleb128 0x2e
 323 0038 01       		.byte	0x1
 324 0039 3F       		.uleb128 0x3f
 325 003a 0C       		.uleb128 0xc
 326 003b 03       		.uleb128 0x3
 327 003c 0E       		.uleb128 0xe
 328 003d 3A       		.uleb128 0x3a
 329 003e 0B       		.uleb128 0xb
 330 003f 3B       		.uleb128 0x3b
 331 0040 0B       		.uleb128 0xb
 332 0041 27       		.uleb128 0x27
 333 0042 0C       		.uleb128 0xc
 334 0043 11       		.uleb128 0x11
 335 0044 01       		.uleb128 0x1
 336 0045 12       		.uleb128 0x12
 337 0046 01       		.uleb128 0x1
 338 0047 40       		.uleb128 0x40
 339 0048 06       		.uleb128 0x6
 340 0049 00       		.byte	0x0
 341 004a 00       		.byte	0x0
 342 004b 06       		.uleb128 0x6
 343 004c 05       		.uleb128 0x5
 344 004d 00       		.byte	0x0
 345 004e 03       		.uleb128 0x3
 346 004f 08       		.uleb128 0x8
 347 0050 3A       		.uleb128 0x3a
ARM GAS  /cygdrive/c/DOCUME~1/mkwapisz/LOCALS~1/Temp/ccbI3Shd.s 			page 8


 348 0051 0B       		.uleb128 0xb
 349 0052 3B       		.uleb128 0x3b
 350 0053 0B       		.uleb128 0xb
 351 0054 49       		.uleb128 0x49
 352 0055 13       		.uleb128 0x13
 353 0056 02       		.uleb128 0x2
 354 0057 06       		.uleb128 0x6
 355 0058 00       		.byte	0x0
 356 0059 00       		.byte	0x0
 357 005a 00       		.byte	0x0
 358              		.section	.debug_pubnames,"",%progbits
 359 0000 1A000000 		.4byte	0x1a
 360 0004 0200     		.2byte	0x2
 361 0006 00000000 		.4byte	.Ldebug_info0
 362 000a 9F000000 		.4byte	0x9f
 363 000e 61000000 		.4byte	0x61
 364 0012 74657374 		.ascii	"testRGB\000"
 364      52474200 
 365 001a 00000000 		.4byte	0x0
 366              		.section	.debug_aranges,"",%progbits
 367 0000 1C000000 		.4byte	0x1c
 368 0004 0200     		.2byte	0x2
 369 0006 00000000 		.4byte	.Ldebug_info0
 370 000a 04       		.byte	0x4
 371 000b 00       		.byte	0x0
 372 000c 0000     		.2byte	0x0
 373 000e 0000     		.2byte	0x0
 374 0010 00000000 		.4byte	.Ltext0
 375 0014 80000000 		.4byte	.Letext0-.Ltext0
 376 0018 00000000 		.4byte	0x0
 377 001c 00000000 		.4byte	0x0
 378              		.section	.debug_str,"MS",%progbits,1
 379              	.LASF0:
 380 0000 756E7369 		.ascii	"unsigned char\000"
 380      676E6564 
 380      20636861 
 380      7200
 381              	.LASF5:
 382 000e 6C6F6E67 		.ascii	"long unsigned int\000"
 382      20756E73 
 382      69676E65 
 382      6420696E 
 382      7400
 383              	.LASF1:
 384 0020 73686F72 		.ascii	"short unsigned int\000"
 384      7420756E 
 384      7369676E 
 384      65642069 
 384      6E7400
 385              	.LASF9:
 386 0033 74657374 		.ascii	"testRGB\000"
 386      52474200 
 387              	.LASF2:
 388 003b 756E7369 		.ascii	"unsigned int\000"
 388      676E6564 
 388      20696E74 
 388      00
ARM GAS  /cygdrive/c/DOCUME~1/mkwapisz/LOCALS~1/Temp/ccbI3Shd.s 			page 9


 389              	.LASF6:
 390 0048 474E5520 		.ascii	"GNU C 4.1.1\000"
 390      4320342E 
 390      312E3100 
 391              	.LASF4:
 392 0054 73686F72 		.ascii	"short int\000"
 392      7420696E 
 392      7400
 393              	.LASF8:
 394 005e 2F637967 		.ascii	"/cygdrive/c/Embedded/eclipse/Demo/2138\000"
 394      64726976 
 394      652F632F 
 394      456D6265 
 394      64646564 
 395              	.LASF3:
 396 0085 7369676E 		.ascii	"signed char\000"
 396      65642063 
 396      68617200 
 397              	.LASF7:
 398 0091 74657374 		.ascii	"testRGB.c\000"
 398      5247422E 
 398      6300
 399              		.ident	"GCC: (GNU) 4.1.1"
ARM GAS  /cygdrive/c/DOCUME~1/mkwapisz/LOCALS~1/Temp/ccbI3Shd.s 			page 10


DEFINED SYMBOLS
                            *ABS*:00000000 testRGB.c
/cygdrive/c/DOCUME~1/mkwapisz/LOCALS~1/Temp/ccbI3Shd.s:1      .text:00000000 $t
/cygdrive/c/DOCUME~1/mkwapisz/LOCALS~1/Temp/ccbI3Shd.s:16     .text:00000000 testRGB
/cygdrive/c/DOCUME~1/mkwapisz/LOCALS~1/Temp/ccbI3Shd.s:103    .text:00000064 $d

NO UNDEFINED SYMBOLS
