ARM GAS  /cygdrive/c/DOCUME~1/mkwapisz/LOCALS~1/Temp/ccZQ3v2j.s 			page 1


   1              		.code	16
   2              		.file	"timerAndLedMatrix.c"
   3              		.section	.debug_abbrev,"",%progbits
   4              	.Ldebug_abbrev0:
   5              		.section	.debug_info,"",%progbits
   6              	.Ldebug_info0:
   7              		.section	.debug_line,"",%progbits
   8              	.Ldebug_line0:
   9 0000 0B010000 		.text
   9      02005E00 
   9      00000201 
   9      FB0E0D00 
   9      01010101 
  10              	.Ltext0:
  11              		.align	2
  12              		.global	initTimer1
  13              		.code 16
  14              		.thumb_func
  15              		.type	initTimer1, %function
  16              	initTimer1:
  17              	.LFB3:
  18              		.file 1 "timerAndLedMatrix.c"
   1:timerAndLedMatrix.c **** #include "../pre_emptive_os/api/osapi.h"
   2:timerAndLedMatrix.c **** #include "../pre_emptive_os/api/general.h"
   3:timerAndLedMatrix.c **** #include <printf_P.h>
   4:timerAndLedMatrix.c **** #include <lpc2xxx.h>
   5:timerAndLedMatrix.c **** #include <consol.h>
   6:timerAndLedMatrix.c **** #include <config.h>
   7:timerAndLedMatrix.c **** 
   8:timerAndLedMatrix.c **** #define CRYSTAL_FREQUENCY FOSC
   9:timerAndLedMatrix.c **** #define PLL_FACTOR        PLL_MUL
  10:timerAndLedMatrix.c **** #define VPBDIV_FACTOR     PBSD
  11:timerAndLedMatrix.c **** 
  12:timerAndLedMatrix.c **** #define  SPI_CS   0x00008000  //<= new board, old board = 0x00800000
  13:timerAndLedMatrix.c **** 
  14:timerAndLedMatrix.c **** //pattern to click button
  15:timerAndLedMatrix.c **** const tU8 kolko[] = { 0x3c, 0x42, 0x81, 0x81, 0x81, 0x81, 0x42, 0x3c };
  16:timerAndLedMatrix.c **** 
  17:timerAndLedMatrix.c **** //pattern to not clock button
  18:timerAndLedMatrix.c **** const tU8 krzyzyk[] = { 0x81, 0x42, 0x24, 0x18, 0x18, 0x24, 0x42, 0x81 };
  19:timerAndLedMatrix.c **** 
  20:timerAndLedMatrix.c **** //all LEDs
  21:timerAndLedMatrix.c **** const tU8 wszystko[] = { 0xFF, 0xFF, 0xFF, 0xFF, 0xFF, 0xFF, 0xFF, 0xFF };
  22:timerAndLedMatrix.c **** 
  23:timerAndLedMatrix.c **** //empty matrix
  24:timerAndLedMatrix.c **** const tU8 empty[] = { 0x00, 0x00, 0x00, 0x00, 0x00, 0x00, 0x00, 0x00 };
  25:timerAndLedMatrix.c **** 
  26:timerAndLedMatrix.c **** //array to display
  27:timerAndLedMatrix.c **** tU8 pattern[8] = { 0, 0, 0, 0, 0, 0, 0, 0 };
  28:timerAndLedMatrix.c **** 
  29:timerAndLedMatrix.c **** int state = 0;
  30:timerAndLedMatrix.c **** 
  31:timerAndLedMatrix.c **** void ledMatrix(void);
  32:timerAndLedMatrix.c **** 
  33:timerAndLedMatrix.c **** #define MR1I (1<<0) // interrupt when TC = MR0
  34:timerAndLedMatrix.c **** #define MR1R (1<<1)	// reset when TC = MR0
  35:timerAndLedMatrix.c **** 
ARM GAS  /cygdrive/c/DOCUME~1/mkwapisz/LOCALS~1/Temp/ccZQ3v2j.s 			page 2


  36:timerAndLedMatrix.c **** #define PLOCK 0x00000500
  37:timerAndLedMatrix.c **** #define DELAY_MS 2 // 0.5 sceonds delay
  38:timerAndLedMatrix.c **** #define PRESCALE 60000 // 60000 PCLK clokc cycles to increment TC by 1
  39:timerAndLedMatrix.c **** 
  40:timerAndLedMatrix.c **** void initClocks(void);
  41:timerAndLedMatrix.c **** void initTimer1(void);
  42:timerAndLedMatrix.c **** void T1ISR(void);
  43:timerAndLedMatrix.c **** void setupPLL(void);
  44:timerAndLedMatrix.c **** void feedSeq(void);
  45:timerAndLedMatrix.c **** void connectPLL(void);
  46:timerAndLedMatrix.c **** 
  47:timerAndLedMatrix.c **** extern int timerCnt;
  48:timerAndLedMatrix.c **** extern int lifes;
  49:timerAndLedMatrix.c **** extern int showResult;
  50:timerAndLedMatrix.c **** 
  51:timerAndLedMatrix.c **** void timer(void)
  52:timerAndLedMatrix.c **** {
  53:timerAndLedMatrix.c **** 	initClocks();
  54:timerAndLedMatrix.c **** 	initTimer1();
  55:timerAndLedMatrix.c **** 
  56:timerAndLedMatrix.c **** 	T1TCR = 0x01;
  57:timerAndLedMatrix.c **** }
  58:timerAndLedMatrix.c **** 
  59:timerAndLedMatrix.c **** void initTimer1(void)
  60:timerAndLedMatrix.c **** {
  19              		.loc 1 60 0
  61:timerAndLedMatrix.c **** 	T1TCR = 0x0;
  20              		.loc 1 61 0
  21 0000 0F48     		ldr	r0, .L3
  22 0002 0023     		mov	r3, #0
  23 0004 0360     		str	r3, [r0]
  62:timerAndLedMatrix.c **** 	T1PR = PRESCALE - 1;
  24              		.loc 1 62 0
  25 0006 0F4A     		ldr	r2, .L3+4
  26 0008 0F4B     		ldr	r3, .L3+8
  27 000a 1A60     		str	r2, [r3]
  63:timerAndLedMatrix.c **** 	T1MR0 = DELAY_MS - 1;
  28              		.loc 1 63 0
  29 000c 0122     		mov	r2, #1
  30 000e 0C33     		add	r3, r3, #12
  31 0010 1A60     		str	r2, [r3]
  64:timerAndLedMatrix.c **** 	T1MCR = MR1I | MR1R;
  32              		.loc 1 64 0
  33 0012 0322     		mov	r2, #3
  34 0014 043B     		sub	r3, r3, #4
  35 0016 1A60     		str	r2, [r3]
  65:timerAndLedMatrix.c **** 	T1IR = 0x000000ff;
  36              		.loc 1 65 0
  37 0018 FF22     		mov	r2, #255
  38 001a 143B     		sub	r3, r3, #20
  39 001c 1A60     		str	r2, [r3]
  66:timerAndLedMatrix.c **** 	VICIntSelect &= ~0x20;
  40              		.loc 1 66 0
  41 001e 0B4A     		ldr	r2, .L3+12
  42 0020 1368     		ldr	r3, [r2]
  43 0022 2021     		mov	r1, #32
  44 0024 8B43     		bic	r3, r3, r1
ARM GAS  /cygdrive/c/DOCUME~1/mkwapisz/LOCALS~1/Temp/ccZQ3v2j.s 			page 3


  45 0026 1360     		str	r3, [r2]
  67:timerAndLedMatrix.c **** 	VICVectAddr5 = (tU32)T1ISR;
  46              		.loc 1 67 0
  47 0028 094A     		ldr	r2, .L3+16
  48 002a 0A4B     		ldr	r3, .L3+20
  49 002c 1A60     		str	r2, [r3]
  68:timerAndLedMatrix.c **** 
  69:timerAndLedMatrix.c **** 	VICVectCntl5 = 0x20 | 5;
  50              		.loc 1 69 0
  51 002e 0A4B     		ldr	r3, .L3+24
  52 0030 2522     		mov	r2, #37
  53 0032 1A60     		str	r2, [r3]
  70:timerAndLedMatrix.c **** 
  71:timerAndLedMatrix.c **** 	VICIntEnable = 0x20;
  54              		.loc 1 71 0
  55 0034 094B     		ldr	r3, .L3+28
  56 0036 1960     		str	r1, [r3]
  72:timerAndLedMatrix.c **** 	T1TCR = 0x02;
  57              		.loc 1 72 0
  58 0038 0223     		mov	r3, #2
  59              		.loc 1 60 0
  60              		@ lr needed for prologue
  61              		.loc 1 72 0
  62 003a 0360     		str	r3, [r0]
  73:timerAndLedMatrix.c **** }
  63              		.loc 1 73 0
  64              		@ sp needed for prologue
  65 003c 7047     		bx	lr
  66              	.L4:
  67 003e 0000     		.align	2
  68              	.L3:
  69 0040 048000E0 		.word	-536838140
  70 0044 5FEA0000 		.word	59999
  71 0048 0C8000E0 		.word	-536838132
  72 004c 0CF0FFFF 		.word	-4084
  73 0050 00000000 		.word	T1ISR
  74 0054 14F1FFFF 		.word	-3820
  75 0058 14F2FFFF 		.word	-3564
  76 005c 10F0FFFF 		.word	-4080
  77              	.LFE3:
  78              		.size	initTimer1, .-initTimer1
  79              		.align	2
  80              		.global	setupPLL
  81              		.code 16
  82              		.thumb_func
  83              		.type	setupPLL, %function
  84              	setupPLL:
  85              	.LFB5:
  74:timerAndLedMatrix.c **** 
  75:timerAndLedMatrix.c **** void T1ISR()
  76:timerAndLedMatrix.c **** {
  77:timerAndLedMatrix.c **** 	long int regVal;
  78:timerAndLedMatrix.c **** 	regVal = T1IR;
  79:timerAndLedMatrix.c **** 	timerCnt += 1;
  80:timerAndLedMatrix.c **** 	T1IR = regVal;
  81:timerAndLedMatrix.c **** 	ledMatrix();
  82:timerAndLedMatrix.c **** }
ARM GAS  /cygdrive/c/DOCUME~1/mkwapisz/LOCALS~1/Temp/ccZQ3v2j.s 			page 4


  83:timerAndLedMatrix.c **** 
  84:timerAndLedMatrix.c **** void setupPLL(void)
  85:timerAndLedMatrix.c **** {
  86              		.loc 1 85 0
  86:timerAndLedMatrix.c **** 	PLLCON = 0x01;
  87              		.loc 1 86 0
  88 0060 034B     		ldr	r3, .L7
  89 0062 0122     		mov	r2, #1
  90 0064 1A60     		str	r2, [r3]
  87:timerAndLedMatrix.c **** 	PLLCFG = 0x24;
  91              		.loc 1 87 0
  92 0066 2422     		mov	r2, #36
  93 0068 0433     		add	r3, r3, #4
  94              		.loc 1 85 0
  95              		@ lr needed for prologue
  96              		.loc 1 87 0
  97 006a 1A60     		str	r2, [r3]
  88:timerAndLedMatrix.c **** }
  98              		.loc 1 88 0
  99              		@ sp needed for prologue
 100 006c 7047     		bx	lr
 101              	.L8:
 102 006e 0000     		.align	2
 103              	.L7:
 104 0070 80C01FE0 		.word	-534790016
 105              	.LFE5:
 106              		.size	setupPLL, .-setupPLL
 107              		.align	2
 108              		.global	feedSeq
 109              		.code 16
 110              		.thumb_func
 111              		.type	feedSeq, %function
 112              	feedSeq:
 113              	.LFB6:
  89:timerAndLedMatrix.c **** 
  90:timerAndLedMatrix.c **** void feedSeq(void)
  91:timerAndLedMatrix.c **** {
 114              		.loc 1 91 0
  92:timerAndLedMatrix.c **** 	PLLFEED = 0xAA;
 115              		.loc 1 92 0
 116 0074 024B     		ldr	r3, .L11
 117 0076 AA22     		mov	r2, #170
 118 0078 1A60     		str	r2, [r3]
  93:timerAndLedMatrix.c **** 	PLLFEED = 0x55;
 119              		.loc 1 93 0
 120 007a 5522     		mov	r2, #85
 121              		.loc 1 91 0
 122              		@ lr needed for prologue
 123              		.loc 1 93 0
 124 007c 1A60     		str	r2, [r3]
  94:timerAndLedMatrix.c **** }
 125              		.loc 1 94 0
 126              		@ sp needed for prologue
 127 007e 7047     		bx	lr
 128              	.L12:
 129              		.align	2
 130              	.L11:
ARM GAS  /cygdrive/c/DOCUME~1/mkwapisz/LOCALS~1/Temp/ccZQ3v2j.s 			page 5


 131 0080 8CC01FE0 		.word	-534790004
 132              	.LFE6:
 133              		.size	feedSeq, .-feedSeq
 134              		.align	2
 135              		.global	connectPLL
 136              		.code 16
 137              		.thumb_func
 138              		.type	connectPLL, %function
 139              	connectPLL:
 140              	.LFB7:
  95:timerAndLedMatrix.c **** 
  96:timerAndLedMatrix.c **** void connectPLL(void)
  97:timerAndLedMatrix.c **** {
 141              		.loc 1 97 0
 142              		@ lr needed for prologue
 143              	.L15:
  98:timerAndLedMatrix.c **** 	while (!(PLLSTAT & PLOCK));
 144              		.loc 1 98 0
 145 0084 044B     		ldr	r3, .L20
 146 0086 1A68     		ldr	r2, [r3]
 147 0088 A023     		mov	r3, #160
 148 008a DB00     		lsl	r3, r3, #3
 149 008c 1A42     		tst	r2, r3
 150 008e F9D0     		beq	.L15
  99:timerAndLedMatrix.c **** 	PLLCON = 0x03;
 151              		.loc 1 99 0
 152 0090 024B     		ldr	r3, .L20+4
 153 0092 0322     		mov	r2, #3
 154 0094 1A60     		str	r2, [r3]
 100:timerAndLedMatrix.c **** }
 155              		.loc 1 100 0
 156              		@ sp needed for prologue
 157 0096 7047     		bx	lr
 158              	.L21:
 159              		.align	2
 160              	.L20:
 161 0098 88C01FE0 		.word	-534790008
 162 009c 80C01FE0 		.word	-534790016
 163              	.LFE7:
 164              		.size	connectPLL, .-connectPLL
 165              		.align	2
 166              		.global	initClocks
 167              		.code 16
 168              		.thumb_func
 169              		.type	initClocks, %function
 170              	initClocks:
 171              	.LFB8:
 101:timerAndLedMatrix.c **** 
 102:timerAndLedMatrix.c **** void initClocks(void)
 103:timerAndLedMatrix.c **** {
 172              		.loc 1 103 0
 173              	.LBB10:
 174              	.LBB11:
 175              		.loc 1 86 0
 176 00a0 0E4B     		ldr	r3, .L28
 177 00a2 0122     		mov	r2, #1
 178 00a4 1A60     		str	r2, [r3]
ARM GAS  /cygdrive/c/DOCUME~1/mkwapisz/LOCALS~1/Temp/ccZQ3v2j.s 			page 6


 179              		.loc 1 87 0
 180 00a6 2422     		mov	r2, #36
 181 00a8 0433     		add	r3, r3, #4
 182 00aa 1A60     		str	r2, [r3]
 183              	.LBE11:
 184              	.LBE10:
 185              	.LBB12:
 186              	.LBB13:
 187              		.loc 1 92 0
 188 00ac 0C4A     		ldr	r2, .L28+4
 189 00ae AA23     		mov	r3, #170
 190 00b0 1360     		str	r3, [r2]
 191              		.loc 1 93 0
 192 00b2 5523     		mov	r3, #85
 193 00b4 1360     		str	r3, [r2]
 194              	.LBE13:
 195              	.LBE12:
 196              		.loc 1 103 0
 197              		@ lr needed for prologue
 198              	.L23:
 199              	.LBB14:
 200              	.LBB15:
 201              		.loc 1 98 0
 202 00b6 0B4B     		ldr	r3, .L28+8
 203 00b8 1A68     		ldr	r2, [r3]
 204 00ba A023     		mov	r3, #160
 205 00bc DB00     		lsl	r3, r3, #3
 206 00be 1A42     		tst	r2, r3
 207 00c0 F9D0     		beq	.L23
 208              		.loc 1 99 0
 209 00c2 064B     		ldr	r3, .L28
 210 00c4 0322     		mov	r2, #3
 211 00c6 1A60     		str	r2, [r3]
 212              	.LBE15:
 213              	.LBE14:
 214              	.LBB16:
 215              	.LBB17:
 216              		.loc 1 92 0
 217 00c8 054A     		ldr	r2, .L28+4
 218 00ca AA23     		mov	r3, #170
 219 00cc 1360     		str	r3, [r2]
 220              		.loc 1 93 0
 221 00ce 5523     		mov	r3, #85
 222 00d0 1360     		str	r3, [r2]
 223              	.LBE17:
 224              	.LBE16:
 104:timerAndLedMatrix.c **** 	setupPLL();
 105:timerAndLedMatrix.c **** 	feedSeq();
 106:timerAndLedMatrix.c **** 	connectPLL();
 107:timerAndLedMatrix.c **** 	feedSeq();
 108:timerAndLedMatrix.c **** 
 109:timerAndLedMatrix.c **** 	VPBDIV = 0x01;
 225              		.loc 1 109 0
 226 00d2 054B     		ldr	r3, .L28+12
 227 00d4 0122     		mov	r2, #1
 228 00d6 1A60     		str	r2, [r3]
 110:timerAndLedMatrix.c **** }
ARM GAS  /cygdrive/c/DOCUME~1/mkwapisz/LOCALS~1/Temp/ccZQ3v2j.s 			page 7


 229              		.loc 1 110 0
 230              		@ sp needed for prologue
 231 00d8 7047     		bx	lr
 232              	.L29:
 233 00da 0000     		.align	2
 234              	.L28:
 235 00dc 80C01FE0 		.word	-534790016
 236 00e0 8CC01FE0 		.word	-534790004
 237 00e4 88C01FE0 		.word	-534790008
 238 00e8 00C11FE0 		.word	-534789888
 239              	.LFE8:
 240              		.size	initClocks, .-initClocks
 241              		.align	2
 242              		.global	timer
 243              		.code 16
 244              		.thumb_func
 245              		.type	timer, %function
 246              	timer:
 247              	.LFB2:
 248              		.loc 1 52 0
 249 00ec 00B5     		push	{lr}
 250              	.LCFI0:
 251              		.loc 1 53 0
 252 00ee FFF7FEFF 		bl	initClocks
 253              		.loc 1 54 0
 254 00f2 FFF7FEFF 		bl	initTimer1
 255              		.loc 1 56 0
 256 00f6 024B     		ldr	r3, .L32
 257 00f8 0122     		mov	r2, #1
 258 00fa 1A60     		str	r2, [r3]
 259              		.loc 1 57 0
 260              		@ sp needed for prologue
 261 00fc 01BC     		pop	{r0}
 262 00fe 0047     		bx	r0
 263              	.L33:
 264              		.align	2
 265              	.L32:
 266 0100 048000E0 		.word	-536838140
 267              	.LFE2:
 268              		.size	timer, .-timer
 269              		.global	__modsi3
 270              		.section	.rodata.str1.4,"aMS",%progbits,1
 271              		.align	2
 272              	.LC5:
 273 0000 25640A00 		.ascii	"%d\012\000"
 274              		.text
 275              		.align	2
 276              		.global	timerAndLedMatrix
 277              		.code 16
 278              		.thumb_func
 279              		.type	timerAndLedMatrix, %function
 280              	timerAndLedMatrix:
 281              	.LFB9:
 111:timerAndLedMatrix.c **** 
 112:timerAndLedMatrix.c **** void timerAndLedMatrix(void)
 113:timerAndLedMatrix.c **** {
 282              		.loc 1 113 0
ARM GAS  /cygdrive/c/DOCUME~1/mkwapisz/LOCALS~1/Temp/ccZQ3v2j.s 			page 8


 283 0104 30B5     		push	{r4, r5, lr}
 284              	.LCFI1:
 114:timerAndLedMatrix.c **** 	tU8 cntA = 0;
 115:timerAndLedMatrix.c **** 
 116:timerAndLedMatrix.c **** 	PINSEL0 |= 0x00001500;  //Initiering av SPI
 285              		.loc 1 116 0
 286 0106 6249     		ldr	r1, .L66
 287 0108 A823     		mov	r3, #168
 288 010a 0A68     		ldr	r2, [r1]
 289 010c 5B01     		lsl	r3, r3, #5
 290 010e 1A43     		orr	r2, r2, r3
 117:timerAndLedMatrix.c **** 	SPI_SPCCR = 0x08;
 291              		.loc 1 117 0
 292 0110 604B     		ldr	r3, .L66+4
 293              		.loc 1 116 0
 294 0112 0A60     		str	r2, [r1]
 295              		.loc 1 117 0
 296 0114 0822     		mov	r2, #8
 297 0116 1A60     		str	r2, [r3]
 118:timerAndLedMatrix.c **** 	SPI_SPCR = 0x60;
 298              		.loc 1 118 0
 299 0118 6022     		mov	r2, #96
 300 011a 0C3B     		sub	r3, r3, #12
 301 011c 1A60     		str	r2, [r3]
 119:timerAndLedMatrix.c **** 	timer();
 302              		.loc 1 119 0
 303 011e FFF7FEFF 		bl	timer
 120:timerAndLedMatrix.c **** 	IODIR0 |= SPI_CS;
 304              		.loc 1 120 0
 305 0122 5D49     		ldr	r1, .L66+8
 306 0124 8023     		mov	r3, #128
 307 0126 0A68     		ldr	r2, [r1]
 308 0128 1B02     		lsl	r3, r3, #8
 309 012a 1A43     		orr	r2, r2, r3
 310 012c 0A60     		str	r2, [r1]
 121:timerAndLedMatrix.c **** 
 122:timerAndLedMatrix.c **** 	srand(123456);
 311              		.loc 1 122 0
 312 012e 5B48     		ldr	r0, .L66+12
 313 0130 FFF7FEFF 		bl	srand
 314              	.L35:
 315              	.LBB18:
 123:timerAndLedMatrix.c **** 	for (;;)
 124:timerAndLedMatrix.c **** 	{
 125:timerAndLedMatrix.c **** 		PINSEL0 |= 0x00001500;
 316              		.loc 1 125 0
 317 0134 5649     		ldr	r1, .L66
 318 0136 A823     		mov	r3, #168
 319 0138 0A68     		ldr	r2, [r1]
 320 013a 5B01     		lsl	r3, r3, #5
 321 013c 1A43     		orr	r2, r2, r3
 322 013e 0A60     		str	r2, [r1]
 126:timerAndLedMatrix.c **** 		state = 0;
 323              		.loc 1 126 0
 324 0140 574A     		ldr	r2, .L66+16
 325 0142 0023     		mov	r3, #0
 326 0144 1360     		str	r3, [r2]
ARM GAS  /cygdrive/c/DOCUME~1/mkwapisz/LOCALS~1/Temp/ccZQ3v2j.s 			page 9


 127:timerAndLedMatrix.c **** 		int znak = rand() % 100;
 327              		.loc 1 127 0
 328 0146 FFF7FEFF 		bl	rand
 128:timerAndLedMatrix.c **** 		cntA++;
 129:timerAndLedMatrix.c **** 		if (cntA > sizeof(kolko) - 8)
 130:timerAndLedMatrix.c **** 			cntA = 0;
 131:timerAndLedMatrix.c **** 
 132:timerAndLedMatrix.c **** 		if (lifes > 0)
 329              		.loc 1 132 0
 330 014a 564B     		ldr	r3, .L66+20
 331 014c 1B68     		ldr	r3, [r3]
 332 014e 002B     		cmp	r3, #0
 333 0150 20DD     		ble	.L36
 133:timerAndLedMatrix.c **** 		{
 134:timerAndLedMatrix.c **** 			if (znak > 50)
 334              		.loc 1 134 0
 335 0152 6421     		mov	r1, #100
 336 0154 FFF7FEFF 		bl	__modsi3
 337 0158 534C     		ldr	r4, .L66+24
 338 015a 3228     		cmp	r0, #50
 339 015c 0CDD     		ble	.L38
 135:timerAndLedMatrix.c **** 			{
 136:timerAndLedMatrix.c **** 				pattern[0] = kolko[cntA + 0];
 137:timerAndLedMatrix.c **** 				pattern[1] = kolko[cntA + 1];
 138:timerAndLedMatrix.c **** 				pattern[2] = kolko[cntA + 2];
 340              		.loc 1 138 0
 341 015e 7F23     		mov	r3, #127
 342 0160 5B42     		neg	r3, r3
 343              		.loc 1 136 0
 344 0162 3C21     		mov	r1, #60
 345              		.loc 1 137 0
 346 0164 4222     		mov	r2, #66
 347              		.loc 1 136 0
 348 0166 2170     		strb	r1, [r4]
 349              		.loc 1 137 0
 350 0168 6270     		strb	r2, [r4, #1]
 351              		.loc 1 138 0
 352 016a A370     		strb	r3, [r4, #2]
 139:timerAndLedMatrix.c **** 				pattern[3] = kolko[cntA + 3];
 353              		.loc 1 139 0
 354 016c E370     		strb	r3, [r4, #3]
 140:timerAndLedMatrix.c **** 				pattern[4] = kolko[cntA + 4];
 355              		.loc 1 140 0
 356 016e 2371     		strb	r3, [r4, #4]
 141:timerAndLedMatrix.c **** 				pattern[5] = kolko[cntA + 5];
 357              		.loc 1 141 0
 358 0170 6371     		strb	r3, [r4, #5]
 142:timerAndLedMatrix.c **** 				pattern[6] = kolko[cntA + 6];
 359              		.loc 1 142 0
 360 0172 A271     		strb	r2, [r4, #6]
 143:timerAndLedMatrix.c **** 				pattern[7] = kolko[cntA + 7];
 361              		.loc 1 143 0
 362 0174 E171     		strb	r1, [r4, #7]
 363 0176 18E0     		b	.L40
 364              	.L38:
 144:timerAndLedMatrix.c **** 			}
 145:timerAndLedMatrix.c **** 			else
ARM GAS  /cygdrive/c/DOCUME~1/mkwapisz/LOCALS~1/Temp/ccZQ3v2j.s 			page 10


 146:timerAndLedMatrix.c **** 			{
 147:timerAndLedMatrix.c **** 				pattern[0] = krzyzyk[cntA + 0];
 365              		.loc 1 147 0
 366 0178 7F22     		mov	r2, #127
 367 017a 5242     		neg	r2, r2
 148:timerAndLedMatrix.c **** 				pattern[1] = krzyzyk[cntA + 1];
 368              		.loc 1 148 0
 369 017c 4220     		mov	r0, #66
 149:timerAndLedMatrix.c **** 				pattern[2] = krzyzyk[cntA + 2];
 370              		.loc 1 149 0
 371 017e 2421     		mov	r1, #36
 150:timerAndLedMatrix.c **** 				pattern[3] = krzyzyk[cntA + 3];
 372              		.loc 1 150 0
 373 0180 1823     		mov	r3, #24
 374              		.loc 1 147 0
 375 0182 2270     		strb	r2, [r4]
 376              		.loc 1 148 0
 377 0184 6070     		strb	r0, [r4, #1]
 378              		.loc 1 149 0
 379 0186 A170     		strb	r1, [r4, #2]
 380              		.loc 1 150 0
 381 0188 E370     		strb	r3, [r4, #3]
 151:timerAndLedMatrix.c **** 				pattern[4] = krzyzyk[cntA + 4];
 382              		.loc 1 151 0
 383 018a 2371     		strb	r3, [r4, #4]
 152:timerAndLedMatrix.c **** 				pattern[5] = krzyzyk[cntA + 5];
 384              		.loc 1 152 0
 385 018c 6171     		strb	r1, [r4, #5]
 153:timerAndLedMatrix.c **** 				pattern[6] = krzyzyk[cntA + 6];
 386              		.loc 1 153 0
 387 018e A071     		strb	r0, [r4, #6]
 154:timerAndLedMatrix.c **** 				pattern[7] = krzyzyk[cntA + 7];
 388              		.loc 1 154 0
 389 0190 E271     		strb	r2, [r4, #7]
 390 0192 0AE0     		b	.L40
 391              	.L36:
 155:timerAndLedMatrix.c **** 			}
 156:timerAndLedMatrix.c **** 		}
 157:timerAndLedMatrix.c **** 		else
 158:timerAndLedMatrix.c **** 		{
 159:timerAndLedMatrix.c **** 			pattern[0] = wszystko[cntA + 0];
 392              		.loc 1 159 0
 393 0194 444A     		ldr	r2, .L66+24
 394 0196 0123     		mov	r3, #1
 395 0198 5B42     		neg	r3, r3
 396 019a 1370     		strb	r3, [r2]
 160:timerAndLedMatrix.c **** 			pattern[1] = wszystko[cntA + 1];
 397              		.loc 1 160 0
 398 019c 5370     		strb	r3, [r2, #1]
 161:timerAndLedMatrix.c **** 			pattern[2] = wszystko[cntA + 2];
 399              		.loc 1 161 0
 400 019e 9370     		strb	r3, [r2, #2]
 162:timerAndLedMatrix.c **** 			pattern[3] = wszystko[cntA + 3];
 401              		.loc 1 162 0
 402 01a0 D370     		strb	r3, [r2, #3]
 163:timerAndLedMatrix.c **** 			pattern[4] = wszystko[cntA + 4];
 403              		.loc 1 163 0
ARM GAS  /cygdrive/c/DOCUME~1/mkwapisz/LOCALS~1/Temp/ccZQ3v2j.s 			page 11


 404 01a2 1371     		strb	r3, [r2, #4]
 164:timerAndLedMatrix.c **** 			pattern[5] = wszystko[cntA + 5];
 405              		.loc 1 164 0
 406 01a4 5371     		strb	r3, [r2, #5]
 165:timerAndLedMatrix.c **** 			pattern[6] = wszystko[cntA + 6];
 407              		.loc 1 165 0
 408 01a6 9371     		strb	r3, [r2, #6]
 166:timerAndLedMatrix.c **** 			pattern[7] = wszystko[cntA + 7];
 409              		.loc 1 166 0
 410 01a8 D371     		strb	r3, [r2, #7]
 411              	.L40:
 167:timerAndLedMatrix.c **** 		}
 168:timerAndLedMatrix.c **** 
 169:timerAndLedMatrix.c **** 		timerCnt = 0;
 412              		.loc 1 169 0
 413 01aa 404A     		ldr	r2, .L66+28
 414 01ac 0023     		mov	r3, #0
 415 01ae 1360     		str	r3, [r2]
 416              	.L41:
 170:timerAndLedMatrix.c **** 
 171:timerAndLedMatrix.c **** 		while (1)
 172:timerAndLedMatrix.c **** 		{
 173:timerAndLedMatrix.c **** 			if (lifes > 0)
 417              		.loc 1 173 0
 418 01b0 3C4D     		ldr	r5, .L66+20
 419 01b2 2B68     		ldr	r3, [r5]
 420 01b4 002B     		cmp	r3, #0
 421 01b6 2DDD     		ble	.L42
 174:timerAndLedMatrix.c **** 			{
 175:timerAndLedMatrix.c **** 				PWM(255, 0, 0);
 422              		.loc 1 175 0
 423 01b8 0022     		mov	r2, #0
 424 01ba 0021     		mov	r1, #0
 425 01bc FF20     		mov	r0, #255
 426 01be FFF7FEFF 		bl	PWM
 176:timerAndLedMatrix.c **** 				printf("%d\n", timerCnt);
 427              		.loc 1 176 0
 428 01c2 3A4C     		ldr	r4, .L66+28
 429 01c4 3A48     		ldr	r0, .L66+32
 430 01c6 2168     		ldr	r1, [r4]
 431 01c8 FFF7FEFF 		bl	simplePrintf
 177:timerAndLedMatrix.c **** 				if (timerCnt > 2000)
 432              		.loc 1 177 0
 433 01cc FA23     		mov	r3, #250
 434 01ce 2268     		ldr	r2, [r4]
 435 01d0 DB00     		lsl	r3, r3, #3
 436 01d2 9A42     		cmp	r2, r3
 437 01d4 04DD     		ble	.L44
 178:timerAndLedMatrix.c **** 				{
 179:timerAndLedMatrix.c **** 					if (pattern[0] == kolko[cntA + 0])lifes -= 1;
 438              		.loc 1 179 0
 439 01d6 344B     		ldr	r3, .L66+24
 440 01d8 1B78     		ldrb	r3, [r3]
 441 01da 3C2B     		cmp	r3, #60
 442 01dc 16D1     		bne	.L52
 443 01de 0CE0     		b	.L65
 444              	.L44:
ARM GAS  /cygdrive/c/DOCUME~1/mkwapisz/LOCALS~1/Temp/ccZQ3v2j.s 			page 12


 180:timerAndLedMatrix.c **** 					showResult = 1;
 181:timerAndLedMatrix.c **** 					break;
 182:timerAndLedMatrix.c **** 				}
 183:timerAndLedMatrix.c **** 				if (!(IOPIN0 & (1 << 14)))
 445              		.loc 1 183 0
 446 01e0 344B     		ldr	r3, .L66+36
 447 01e2 1B68     		ldr	r3, [r3]
 448 01e4 5A04     		lsl	r2, r3, #17
 449 01e6 E3D4     		bmi	.L41
 184:timerAndLedMatrix.c **** 				{
 185:timerAndLedMatrix.c **** 					if (pattern[0] == krzyzyk[cntA + 0])
 450              		.loc 1 185 0
 451 01e8 2F4B     		ldr	r3, .L66+24
 452 01ea 1B78     		ldrb	r3, [r3]
 453 01ec 812B     		cmp	r3, #129
 454 01ee 08D1     		bne	.L50
 186:timerAndLedMatrix.c **** 					{
 187:timerAndLedMatrix.c **** 						PWM(0, 255, 0);
 455              		.loc 1 187 0
 456 01f0 0020     		mov	r0, #0
 457 01f2 FF21     		mov	r1, #255
 458 01f4 0022     		mov	r2, #0
 459 01f6 FFF7FEFF 		bl	PWM
 460              	.L65:
 188:timerAndLedMatrix.c **** 						lifes -= 1;
 461              		.loc 1 188 0
 462 01fa 2B68     		ldr	r3, [r5]
 463 01fc 013B     		sub	r3, r3, #1
 464 01fe 2B60     		str	r3, [r5]
 465 0200 04E0     		b	.L52
 466              	.L50:
 189:timerAndLedMatrix.c **** 					}
 190:timerAndLedMatrix.c **** 					else
 191:timerAndLedMatrix.c **** 					{
 192:timerAndLedMatrix.c **** 						PWM(255, 255, 255);
 467              		.loc 1 192 0
 468 0202 FF20     		mov	r0, #255
 469 0204 FF21     		mov	r1, #255
 470 0206 FF22     		mov	r2, #255
 471 0208 FFF7FEFF 		bl	PWM
 472              	.L52:
 193:timerAndLedMatrix.c **** 					}
 194:timerAndLedMatrix.c **** 					showResult = 1;
 473              		.loc 1 194 0
 474 020c 2A4A     		ldr	r2, .L66+40
 475 020e 0123     		mov	r3, #1
 476 0210 1360     		str	r3, [r2]
 477 0212 06E0     		b	.L48
 478              	.L42:
 195:timerAndLedMatrix.c **** 					break;
 196:timerAndLedMatrix.c **** 				}
 197:timerAndLedMatrix.c **** 			}
 198:timerAndLedMatrix.c **** 			else
 199:timerAndLedMatrix.c **** 			{
 200:timerAndLedMatrix.c **** 				showResult = 1;
 479              		.loc 1 200 0
 480 0214 284A     		ldr	r2, .L66+40
ARM GAS  /cygdrive/c/DOCUME~1/mkwapisz/LOCALS~1/Temp/ccZQ3v2j.s 			page 13


 481 0216 0123     		mov	r3, #1
 201:timerAndLedMatrix.c **** 				osSleep(1000);
 482              		.loc 1 201 0
 483 0218 FA20     		mov	r0, #250
 484              		.loc 1 200 0
 485 021a 1360     		str	r3, [r2]
 486              		.loc 1 201 0
 487 021c 8000     		lsl	r0, r0, #2
 488 021e FFF7FEFF 		bl	osSleep
 489              	.L48:
 202:timerAndLedMatrix.c **** 				break;
 203:timerAndLedMatrix.c **** 			}
 204:timerAndLedMatrix.c **** 		}
 205:timerAndLedMatrix.c **** 
 206:timerAndLedMatrix.c **** 		if (lifes <= 0)
 490              		.loc 1 206 0
 491 0222 204B     		ldr	r3, .L66+20
 492 0224 1B68     		ldr	r3, [r3]
 493 0226 002B     		cmp	r3, #0
 494 0228 16DC     		bgt	.L64
 207:timerAndLedMatrix.c **** 		{
 208:timerAndLedMatrix.c **** 			pattern[0] = wszystko[cntA + 0];
 495              		.loc 1 208 0
 496 022a 1F4A     		ldr	r2, .L66+24
 497 022c 0123     		mov	r3, #1
 498 022e 5B42     		neg	r3, r3
 499 0230 1370     		strb	r3, [r2]
 209:timerAndLedMatrix.c **** 			pattern[1] = wszystko[cntA + 1];
 500              		.loc 1 209 0
 501 0232 5370     		strb	r3, [r2, #1]
 210:timerAndLedMatrix.c **** 			pattern[2] = wszystko[cntA + 2];
 502              		.loc 1 210 0
 503 0234 9370     		strb	r3, [r2, #2]
 211:timerAndLedMatrix.c **** 			pattern[3] = wszystko[cntA + 3];
 504              		.loc 1 211 0
 505 0236 D370     		strb	r3, [r2, #3]
 212:timerAndLedMatrix.c **** 			pattern[4] = wszystko[cntA + 4];
 506              		.loc 1 212 0
 507 0238 1371     		strb	r3, [r2, #4]
 213:timerAndLedMatrix.c **** 			pattern[5] = wszystko[cntA + 5];
 508              		.loc 1 213 0
 509 023a 5371     		strb	r3, [r2, #5]
 214:timerAndLedMatrix.c **** 			pattern[6] = wszystko[cntA + 6];
 510              		.loc 1 214 0
 511 023c 9371     		strb	r3, [r2, #6]
 215:timerAndLedMatrix.c **** 			pattern[7] = wszystko[cntA + 7];
 512              		.loc 1 215 0
 513 023e D371     		strb	r3, [r2, #7]
 514 0240 0AE0     		b	.L64
 515              	.L55:
 216:timerAndLedMatrix.c **** 		}
 217:timerAndLedMatrix.c **** 
 218:timerAndLedMatrix.c **** 		while (showResult == 1)
 219:timerAndLedMatrix.c **** 		{
 220:timerAndLedMatrix.c **** 			if (lifes <= 0)
 516              		.loc 1 220 0
 517 0242 1368     		ldr	r3, [r2]
ARM GAS  /cygdrive/c/DOCUME~1/mkwapisz/LOCALS~1/Temp/ccZQ3v2j.s 			page 14


 518 0244 002B     		cmp	r3, #0
 519 0246 04DC     		bgt	.L56
 221:timerAndLedMatrix.c **** 			{
 222:timerAndLedMatrix.c **** 				PWM(255, 0, 0);
 520              		.loc 1 222 0
 521 0248 FF20     		mov	r0, #255
 522 024a 0021     		mov	r1, #0
 523 024c 0022     		mov	r2, #0
 524 024e FFF7FEFF 		bl	PWM
 525              	.L56:
 223:timerAndLedMatrix.c **** 			}
 224:timerAndLedMatrix.c **** 			osSleep(10);
 526              		.loc 1 224 0
 527 0252 0A20     		mov	r0, #10
 528 0254 FFF7FEFF 		bl	osSleep
 529              	.L64:
 530              		.loc 1 218 0
 531 0258 174B     		ldr	r3, .L66+40
 532 025a 1B68     		ldr	r3, [r3]
 533 025c 114A     		ldr	r2, .L66+20
 534 025e 012B     		cmp	r3, #1
 535 0260 EFD0     		beq	.L55
 225:timerAndLedMatrix.c **** 		}
 226:timerAndLedMatrix.c **** 
 227:timerAndLedMatrix.c **** 		if (lifes > 0)
 536              		.loc 1 227 0
 537 0262 1368     		ldr	r3, [r2]
 538 0264 002B     		cmp	r3, #0
 539 0266 09DD     		ble	.L59
 228:timerAndLedMatrix.c **** 		{
 229:timerAndLedMatrix.c **** 			pattern[0] = empty[cntA + 0];
 540              		.loc 1 229 0
 541 0268 0F4A     		ldr	r2, .L66+24
 542 026a 0023     		mov	r3, #0
 543 026c 1370     		strb	r3, [r2]
 230:timerAndLedMatrix.c **** 			pattern[1] = empty[cntA + 1];
 544              		.loc 1 230 0
 545 026e 5370     		strb	r3, [r2, #1]
 231:timerAndLedMatrix.c **** 			pattern[2] = empty[cntA + 2];
 546              		.loc 1 231 0
 547 0270 9370     		strb	r3, [r2, #2]
 232:timerAndLedMatrix.c **** 			pattern[3] = empty[cntA + 3];
 548              		.loc 1 232 0
 549 0272 D370     		strb	r3, [r2, #3]
 233:timerAndLedMatrix.c **** 			pattern[4] = empty[cntA + 4];
 550              		.loc 1 233 0
 551 0274 1371     		strb	r3, [r2, #4]
 234:timerAndLedMatrix.c **** 			pattern[5] = empty[cntA + 5];
 552              		.loc 1 234 0
 553 0276 5371     		strb	r3, [r2, #5]
 235:timerAndLedMatrix.c **** 			pattern[6] = empty[cntA + 6];
 554              		.loc 1 235 0
 555 0278 9371     		strb	r3, [r2, #6]
 236:timerAndLedMatrix.c **** 			pattern[7] = empty[cntA + 7];
 556              		.loc 1 236 0
 557 027a D371     		strb	r3, [r2, #7]
 558              	.L59:
ARM GAS  /cygdrive/c/DOCUME~1/mkwapisz/LOCALS~1/Temp/ccZQ3v2j.s 			page 15


 237:timerAndLedMatrix.c **** 		}
 238:timerAndLedMatrix.c **** 
 239:timerAndLedMatrix.c **** 
 240:timerAndLedMatrix.c **** 		osSleep(100);
 559              		.loc 1 240 0
 560 027c 6420     		mov	r0, #100
 561 027e FFF7FEFF 		bl	osSleep
 241:timerAndLedMatrix.c **** 		PWM(0, 0, 0);
 562              		.loc 1 241 0
 563 0282 0021     		mov	r1, #0
 564 0284 0022     		mov	r2, #0
 565 0286 0020     		mov	r0, #0
 566 0288 FFF7FEFF 		bl	PWM
 567 028c 52E7     		b	.L35
 568              	.L67:
 569 028e 0000     		.align	2
 570              	.L66:
 571 0290 00C002E0 		.word	-536690688
 572 0294 0C0002E0 		.word	-536739828
 573 0298 088002E0 		.word	-536707064
 574 029c 40E20100 		.word	123456
 575 02a0 00000000 		.word	state
 576 02a4 00000000 		.word	lifes
 577 02a8 00000000 		.word	pattern
 578 02ac 00000000 		.word	timerCnt
 579 02b0 00000000 		.word	.LC5
 580 02b4 008002E0 		.word	-536707072
 581 02b8 00000000 		.word	showResult
 582              	.LBE18:
 583              	.LFE9:
 584              		.size	timerAndLedMatrix, .-timerAndLedMatrix
 585              		.align	2
 586              		.global	T1ISR
 587              		.code 16
 588              		.thumb_func
 589              		.type	T1ISR, %function
 590              	T1ISR:
 591              	.LFB4:
 592              		.loc 1 76 0
 593 02bc 00B5     		push	{lr}
 594              	.LCFI2:
 595              		.loc 1 79 0
 596 02be 054A     		ldr	r2, .L70
 597              		.loc 1 78 0
 598 02c0 0549     		ldr	r1, .L70+4
 599              		.loc 1 79 0
 600 02c2 1368     		ldr	r3, [r2]
 601              		.loc 1 78 0
 602 02c4 0868     		ldr	r0, [r1]
 603              		.loc 1 79 0
 604 02c6 0133     		add	r3, r3, #1
 605 02c8 1360     		str	r3, [r2]
 606              		.loc 1 80 0
 607 02ca 0860     		str	r0, [r1]
 608              		.loc 1 81 0
 609 02cc FFF7FEFF 		bl	ledMatrix
 610              		.loc 1 82 0
ARM GAS  /cygdrive/c/DOCUME~1/mkwapisz/LOCALS~1/Temp/ccZQ3v2j.s 			page 16


 611              		@ sp needed for prologue
 612 02d0 01BC     		pop	{r0}
 613 02d2 0047     		bx	r0
 614              	.L71:
 615              		.align	2
 616              	.L70:
 617 02d4 00000000 		.word	timerCnt
 618 02d8 008000E0 		.word	-536838144
 619              	.LFE4:
 620              		.size	T1ISR, .-T1ISR
 621              		.global	kolko
 622              		.section	.rodata
 623              		.type	kolko, %object
 624              		.size	kolko, 8
 625              	kolko:
 626 0000 3C       		.byte	60
 627 0001 42       		.byte	66
 628 0002 81       		.byte	-127
 629 0003 81       		.byte	-127
 630 0004 81       		.byte	-127
 631 0005 81       		.byte	-127
 632 0006 42       		.byte	66
 633 0007 3C       		.byte	60
 634              		.global	krzyzyk
 635              		.type	krzyzyk, %object
 636              		.size	krzyzyk, 8
 637              	krzyzyk:
 638 0008 81       		.byte	-127
 639 0009 42       		.byte	66
 640 000a 24       		.byte	36
 641 000b 18       		.byte	24
 642 000c 18       		.byte	24
 643 000d 24       		.byte	36
 644 000e 42       		.byte	66
 645 000f 81       		.byte	-127
 646              		.global	wszystko
 647              		.type	wszystko, %object
 648              		.size	wszystko, 8
 649              	wszystko:
 650 0010 FF       		.byte	-1
 651 0011 FF       		.byte	-1
 652 0012 FF       		.byte	-1
 653 0013 FF       		.byte	-1
 654 0014 FF       		.byte	-1
 655 0015 FF       		.byte	-1
 656 0016 FF       		.byte	-1
 657 0017 FF       		.byte	-1
 658              		.global	empty
 659              		.type	empty, %object
 660              		.size	empty, 8
 661              	empty:
 662 0018 00000000 		.space	8
 662      00000000 
 663              		.global	pattern
 664              		.bss
 665              		.type	pattern, %object
 666              		.size	pattern, 8
ARM GAS  /cygdrive/c/DOCUME~1/mkwapisz/LOCALS~1/Temp/ccZQ3v2j.s 			page 17


 667              	pattern:
 668 0000 00000000 		.space	8
 668      00000000 
 669              		.global	state
 670              		.align	2
 671              		.type	state, %object
 672              		.size	state, 4
 673              	state:
 674 0008 00000000 		.space	4
 675              		.section	.debug_frame,"",%progbits
 676              	.Lframe0:
 677 0000 0C000000 		.4byte	.LECIE0-.LSCIE0
 678              	.LSCIE0:
 679 0004 FFFFFFFF 		.4byte	0xffffffff
 680 0008 01       		.byte	0x1
 681 0009 00       		.ascii	"\000"
 682 000a 01       		.uleb128 0x1
 683 000b 7C       		.sleb128 -4
 684 000c 0E       		.byte	0xe
 685 000d 0C       		.byte	0xc
 686 000e 0D       		.uleb128 0xd
 687 000f 00       		.uleb128 0x0
 688              		.align	2
 689              	.LECIE0:
 690              	.LSFDE0:
 691 0010 0C000000 		.4byte	.LEFDE0-.LASFDE0
 692              	.LASFDE0:
 693 0014 00000000 		.4byte	.Lframe0
 694 0018 00000000 		.4byte	.LFB3
 695 001c 60000000 		.4byte	.LFE3-.LFB3
 696              		.align	2
 697              	.LEFDE0:
 698              	.LSFDE2:
 699 0020 0C000000 		.4byte	.LEFDE2-.LASFDE2
 700              	.LASFDE2:
 701 0024 00000000 		.4byte	.Lframe0
 702 0028 60000000 		.4byte	.LFB5
 703 002c 14000000 		.4byte	.LFE5-.LFB5
 704              		.align	2
 705              	.LEFDE2:
 706              	.LSFDE4:
 707 0030 0C000000 		.4byte	.LEFDE4-.LASFDE4
 708              	.LASFDE4:
 709 0034 00000000 		.4byte	.Lframe0
 710 0038 74000000 		.4byte	.LFB6
 711 003c 10000000 		.4byte	.LFE6-.LFB6
 712              		.align	2
 713              	.LEFDE4:
 714              	.LSFDE6:
 715 0040 0C000000 		.4byte	.LEFDE6-.LASFDE6
 716              	.LASFDE6:
 717 0044 00000000 		.4byte	.Lframe0
 718 0048 84000000 		.4byte	.LFB7
 719 004c 1C000000 		.4byte	.LFE7-.LFB7
 720              		.align	2
 721              	.LEFDE6:
 722              	.LSFDE8:
ARM GAS  /cygdrive/c/DOCUME~1/mkwapisz/LOCALS~1/Temp/ccZQ3v2j.s 			page 18


 723 0050 0C000000 		.4byte	.LEFDE8-.LASFDE8
 724              	.LASFDE8:
 725 0054 00000000 		.4byte	.Lframe0
 726 0058 A0000000 		.4byte	.LFB8
 727 005c 4C000000 		.4byte	.LFE8-.LFB8
 728              		.align	2
 729              	.LEFDE8:
 730              	.LSFDE10:
 731 0060 14000000 		.4byte	.LEFDE10-.LASFDE10
 732              	.LASFDE10:
 733 0064 00000000 		.4byte	.Lframe0
 734 0068 EC000000 		.4byte	.LFB2
 735 006c 18000000 		.4byte	.LFE2-.LFB2
 736 0070 42       		.byte	0x4
 737              		.4byte	.LCFI0-.LFB2
 738 0071 0E       		.byte	0xe
 739 0072 04       		.uleb128 0x4
 740 0073 8E       		.byte	0x8e
 741 0074 01       		.uleb128 0x1
 742 0075 000000   		.align	2
 743              	.LEFDE10:
 744              	.LSFDE12:
 745 0078 18000000 		.4byte	.LEFDE12-.LASFDE12
 746              	.LASFDE12:
 747 007c 00000000 		.4byte	.Lframe0
 748 0080 04010000 		.4byte	.LFB9
 749 0084 B8010000 		.4byte	.LFE9-.LFB9
 750 0088 42       		.byte	0x4
 751              		.4byte	.LCFI1-.LFB9
 752 0089 0E       		.byte	0xe
 753 008a 0C       		.uleb128 0xc
 754 008b 84       		.byte	0x84
 755 008c 03       		.uleb128 0x3
 756 008d 85       		.byte	0x85
 757 008e 02       		.uleb128 0x2
 758 008f 8E       		.byte	0x8e
 759 0090 01       		.uleb128 0x1
 760 0091 000000   		.align	2
 761              	.LEFDE12:
 762              	.LSFDE14:
 763 0094 14000000 		.4byte	.LEFDE14-.LASFDE14
 764              	.LASFDE14:
 765 0098 00000000 		.4byte	.Lframe0
 766 009c BC020000 		.4byte	.LFB4
 767 00a0 20000000 		.4byte	.LFE4-.LFB4
 768 00a4 42       		.byte	0x4
 769              		.4byte	.LCFI2-.LFB4
 770 00a5 0E       		.byte	0xe
 771 00a6 04       		.uleb128 0x4
 772 00a7 8E       		.byte	0x8e
 773 00a8 01       		.uleb128 0x1
 774 00a9 000000   		.align	2
 775              	.LEFDE14:
 776              		.file 2 "./startup/../pre_emptive_os/api/../api/general.h"
 777              		.text
 778              	.Letext0:
 779              		.section	.debug_loc,"",%progbits
ARM GAS  /cygdrive/c/DOCUME~1/mkwapisz/LOCALS~1/Temp/ccZQ3v2j.s 			page 19


 780              	.Ldebug_loc0:
 781              	.LLST5:
 782 0000 EC000000 		.4byte	.LFB2-.Ltext0
 783 0004 EE000000 		.4byte	.LCFI0-.Ltext0
 784 0008 0100     		.2byte	0x1
 785 000a 5D       		.byte	0x5d
 786 000b EE000000 		.4byte	.LCFI0-.Ltext0
 787 000f 04010000 		.4byte	.LFE2-.Ltext0
 788 0013 0200     		.2byte	0x2
 789 0015 7D       		.byte	0x7d
 790 0016 04       		.sleb128 4
 791 0017 00000000 		.4byte	0x0
 792 001b 00000000 		.4byte	0x0
 793              	.LLST6:
 794 001f 04010000 		.4byte	.LFB9-.Ltext0
 795 0023 06010000 		.4byte	.LCFI1-.Ltext0
 796 0027 0100     		.2byte	0x1
 797 0029 5D       		.byte	0x5d
 798 002a 06010000 		.4byte	.LCFI1-.Ltext0
 799 002e BC020000 		.4byte	.LFE9-.Ltext0
 800 0032 0200     		.2byte	0x2
 801 0034 7D       		.byte	0x7d
 802 0035 0C       		.sleb128 12
 803 0036 00000000 		.4byte	0x0
 804 003a 00000000 		.4byte	0x0
 805              	.LLST7:
 806 003e BC020000 		.4byte	.LFB4-.Ltext0
 807 0042 BE020000 		.4byte	.LCFI2-.Ltext0
 808 0046 0100     		.2byte	0x1
 809 0048 5D       		.byte	0x5d
 810 0049 BE020000 		.4byte	.LCFI2-.Ltext0
 811 004d DC020000 		.4byte	.LFE4-.Ltext0
 812 0051 0200     		.2byte	0x2
 813 0053 7D       		.byte	0x7d
 814 0054 04       		.sleb128 4
 815 0055 00000000 		.4byte	0x0
 816 0059 00000000 		.4byte	0x0
 817              		.section	.debug_info
 818 0000 82020000 		.4byte	0x282
 819 0004 0200     		.2byte	0x2
 820 0006 00000000 		.4byte	.Ldebug_abbrev0
 821 000a 04       		.byte	0x4
 822 000b 01       		.uleb128 0x1
 823 000c 00000000 		.4byte	.Ldebug_line0
 824 0010 DC020000 		.4byte	.Letext0
 825 0014 00000000 		.4byte	.Ltext0
 826 0018 CD000000 		.4byte	.LASF27
 827 001c 01       		.byte	0x1
 828 001d 34000000 		.4byte	.LASF28
 829 0021 F9000000 		.4byte	.LASF29
 830 0025 02       		.uleb128 0x2
 831 0026 74553800 		.ascii	"tU8\000"
 832 002a 02       		.byte	0x2
 833 002b 47       		.byte	0x47
 834 002c 30000000 		.4byte	0x30
 835 0030 03       		.uleb128 0x3
 836 0031 48000000 		.4byte	.LASF0
ARM GAS  /cygdrive/c/DOCUME~1/mkwapisz/LOCALS~1/Temp/ccZQ3v2j.s 			page 20


 837 0035 01       		.byte	0x1
 838 0036 08       		.byte	0x8
 839 0037 03       		.uleb128 0x3
 840 0038 6E000000 		.4byte	.LASF1
 841 003c 02       		.byte	0x2
 842 003d 07       		.byte	0x7
 843 003e 03       		.uleb128 0x3
 844 003f AC000000 		.4byte	.LASF2
 845 0043 04       		.byte	0x4
 846 0044 07       		.byte	0x7
 847 0045 03       		.uleb128 0x3
 848 0046 38010000 		.4byte	.LASF3
 849 004a 01       		.byte	0x1
 850 004b 06       		.byte	0x6
 851 004c 03       		.uleb128 0x3
 852 004d EF000000 		.4byte	.LASF4
 853 0051 02       		.byte	0x2
 854 0052 05       		.byte	0x5
 855 0053 04       		.uleb128 0x4
 856 0054 696E7400 		.ascii	"int\000"
 857 0058 04       		.byte	0x4
 858 0059 05       		.byte	0x5
 859 005a 03       		.uleb128 0x3
 860 005b 5C000000 		.4byte	.LASF5
 861 005f 04       		.byte	0x4
 862 0060 07       		.byte	0x7
 863 0061 05       		.uleb128 0x5
 864 0062 01       		.byte	0x1
 865 0063 14000000 		.4byte	.LASF6
 866 0067 01       		.byte	0x1
 867 0068 55       		.byte	0x55
 868 0069 01       		.byte	0x1
 869 006a 01       		.byte	0x1
 870 006b 05       		.uleb128 0x5
 871 006c 01       		.byte	0x1
 872 006d 44010000 		.4byte	.LASF7
 873 0071 01       		.byte	0x1
 874 0072 5B       		.byte	0x5b
 875 0073 01       		.byte	0x1
 876 0074 01       		.byte	0x1
 877 0075 05       		.uleb128 0x5
 878 0076 01       		.byte	0x1
 879 0077 E4000000 		.4byte	.LASF8
 880 007b 01       		.byte	0x1
 881 007c 61       		.byte	0x61
 882 007d 01       		.byte	0x1
 883 007e 01       		.byte	0x1
 884 007f 06       		.uleb128 0x6
 885 0080 01       		.byte	0x1
 886 0081 A1000000 		.4byte	.LASF9
 887 0085 01       		.byte	0x1
 888 0086 3C       		.byte	0x3c
 889 0087 01       		.byte	0x1
 890 0088 00000000 		.4byte	.LFB3
 891 008c 60000000 		.4byte	.LFE3
 892 0090 01       		.byte	0x1
 893 0091 5D       		.byte	0x5d
ARM GAS  /cygdrive/c/DOCUME~1/mkwapisz/LOCALS~1/Temp/ccZQ3v2j.s 			page 21


 894 0092 07       		.uleb128 0x7
 895 0093 61000000 		.4byte	0x61
 896 0097 60000000 		.4byte	.LFB5
 897 009b 74000000 		.4byte	.LFE5
 898 009f 01       		.byte	0x1
 899 00a0 5D       		.byte	0x5d
 900 00a1 07       		.uleb128 0x7
 901 00a2 6B000000 		.4byte	0x6b
 902 00a6 74000000 		.4byte	.LFB6
 903 00aa 84000000 		.4byte	.LFE6
 904 00ae 01       		.byte	0x1
 905 00af 5D       		.byte	0x5d
 906 00b0 07       		.uleb128 0x7
 907 00b1 75000000 		.4byte	0x75
 908 00b5 84000000 		.4byte	.LFB7
 909 00b9 A0000000 		.4byte	.LFE7
 910 00bd 01       		.byte	0x1
 911 00be 5D       		.byte	0x5d
 912 00bf 08       		.uleb128 0x8
 913 00c0 13010000 		.4byte	0x113
 914 00c4 01       		.byte	0x1
 915 00c5 C2000000 		.4byte	.LASF11
 916 00c9 01       		.byte	0x1
 917 00ca 67       		.byte	0x67
 918 00cb 01       		.byte	0x1
 919 00cc A0000000 		.4byte	.LFB8
 920 00d0 EC000000 		.4byte	.LFE8
 921 00d4 01       		.byte	0x1
 922 00d5 5D       		.byte	0x5d
 923 00d6 09       		.uleb128 0x9
 924 00d7 61000000 		.4byte	0x61
 925 00db A0000000 		.4byte	.LBB10
 926 00df AC000000 		.4byte	.LBE10
 927 00e3 01       		.byte	0x1
 928 00e4 68       		.byte	0x68
 929 00e5 09       		.uleb128 0x9
 930 00e6 6B000000 		.4byte	0x6b
 931 00ea AC000000 		.4byte	.LBB12
 932 00ee B6000000 		.4byte	.LBE12
 933 00f2 01       		.byte	0x1
 934 00f3 69       		.byte	0x69
 935 00f4 09       		.uleb128 0x9
 936 00f5 75000000 		.4byte	0x75
 937 00f9 B6000000 		.4byte	.LBB14
 938 00fd C8000000 		.4byte	.LBE14
 939 0101 01       		.byte	0x1
 940 0102 6A       		.byte	0x6a
 941 0103 09       		.uleb128 0x9
 942 0104 6B000000 		.4byte	0x6b
 943 0108 C8000000 		.4byte	.LBB16
 944 010c D2000000 		.4byte	.LBE16
 945 0110 01       		.byte	0x1
 946 0111 6B       		.byte	0x6b
 947 0112 00       		.byte	0x0
 948 0113 0A       		.uleb128 0xa
 949 0114 01       		.byte	0x1
 950 0115 56000000 		.4byte	.LASF10
ARM GAS  /cygdrive/c/DOCUME~1/mkwapisz/LOCALS~1/Temp/ccZQ3v2j.s 			page 22


 951 0119 01       		.byte	0x1
 952 011a 34       		.byte	0x34
 953 011b 01       		.byte	0x1
 954 011c EC000000 		.4byte	.LFB2
 955 0120 04010000 		.4byte	.LFE2
 956 0124 00000000 		.4byte	.LLST5
 957 0128 0B       		.uleb128 0xb
 958 0129 62010000 		.4byte	0x162
 959 012d 01       		.byte	0x1
 960 012e 20010000 		.4byte	.LASF12
 961 0132 01       		.byte	0x1
 962 0133 71       		.byte	0x71
 963 0134 01       		.byte	0x1
 964 0135 04010000 		.4byte	.LFB9
 965 0139 BC020000 		.4byte	.LFE9
 966 013d 1F000000 		.4byte	.LLST6
 967 0141 0C       		.uleb128 0xc
 968 0142 1D000000 		.4byte	.LASF13
 969 0146 01       		.byte	0x1
 970 0147 72       		.byte	0x72
 971 0148 25000000 		.4byte	0x25
 972 014c 0D       		.uleb128 0xd
 973 014d 34010000 		.4byte	.LBB18
 974 0151 BC020000 		.4byte	.LBE18
 975 0155 0C       		.uleb128 0xc
 976 0156 D9000000 		.4byte	.LASF14
 977 015a 01       		.byte	0x1
 978 015b 7F       		.byte	0x7f
 979 015c 53000000 		.4byte	0x53
 980 0160 00       		.byte	0x0
 981 0161 00       		.byte	0x0
 982 0162 0B       		.uleb128 0xb
 983 0163 87010000 		.4byte	0x187
 984 0167 01       		.byte	0x1
 985 0168 93000000 		.4byte	.LASF15
 986 016c 01       		.byte	0x1
 987 016d 4C       		.byte	0x4c
 988 016e 01       		.byte	0x1
 989 016f BC020000 		.4byte	.LFB4
 990 0173 DC020000 		.4byte	.LFE4
 991 0177 3E000000 		.4byte	.LLST7
 992 017b 0C       		.uleb128 0xc
 993 017c 81000000 		.4byte	.LASF16
 994 0180 01       		.byte	0x1
 995 0181 4D       		.byte	0x4d
 996 0182 87010000 		.4byte	0x187
 997 0186 00       		.byte	0x0
 998 0187 03       		.uleb128 0x3
 999 0188 22000000 		.4byte	.LASF17
 1000 018c 04       		.byte	0x4
 1001 018d 05       		.byte	0x5
 1002 018e 0E       		.uleb128 0xe
 1003 018f 9E010000 		.4byte	0x19e
 1004 0193 25000000 		.4byte	0x25
 1005 0197 0F       		.uleb128 0xf
 1006 0198 5A000000 		.4byte	0x5a
 1007 019c 07       		.byte	0x7
ARM GAS  /cygdrive/c/DOCUME~1/mkwapisz/LOCALS~1/Temp/ccZQ3v2j.s 			page 23


 1008 019d 00       		.byte	0x0
 1009 019e 10       		.uleb128 0x10
 1010 019f 32010000 		.4byte	.LASF18
 1011 01a3 01       		.byte	0x1
 1012 01a4 0F       		.byte	0xf
 1013 01a5 B0010000 		.4byte	0x1b0
 1014 01a9 01       		.byte	0x1
 1015 01aa 05       		.byte	0x5
 1016 01ab 03       		.byte	0x3
 1017 01ac 00000000 		.4byte	kolko
 1018 01b0 11       		.uleb128 0x11
 1019 01b1 8E010000 		.4byte	0x18e
 1020 01b5 0E       		.uleb128 0xe
 1021 01b6 C5010000 		.4byte	0x1c5
 1022 01ba 25000000 		.4byte	0x25
 1023 01be 0F       		.uleb128 0xf
 1024 01bf 5A000000 		.4byte	0x5a
 1025 01c3 07       		.byte	0x7
 1026 01c4 00       		.byte	0x0
 1027 01c5 10       		.uleb128 0x10
 1028 01c6 99000000 		.4byte	.LASF19
 1029 01ca 01       		.byte	0x1
 1030 01cb 12       		.byte	0x12
 1031 01cc D7010000 		.4byte	0x1d7
 1032 01d0 01       		.byte	0x1
 1033 01d1 05       		.byte	0x5
 1034 01d2 03       		.byte	0x3
 1035 01d3 00000000 		.4byte	krzyzyk
 1036 01d7 11       		.uleb128 0x11
 1037 01d8 B5010000 		.4byte	0x1b5
 1038 01dc 0E       		.uleb128 0xe
 1039 01dd EC010000 		.4byte	0x1ec
 1040 01e1 25000000 		.4byte	0x25
 1041 01e5 0F       		.uleb128 0xf
 1042 01e6 5A000000 		.4byte	0x5a
 1043 01ea 07       		.byte	0x7
 1044 01eb 00       		.byte	0x0
 1045 01ec 10       		.uleb128 0x10
 1046 01ed 2B000000 		.4byte	.LASF20
 1047 01f1 01       		.byte	0x1
 1048 01f2 15       		.byte	0x15
 1049 01f3 FE010000 		.4byte	0x1fe
 1050 01f7 01       		.byte	0x1
 1051 01f8 05       		.byte	0x5
 1052 01f9 03       		.byte	0x3
 1053 01fa 00000000 		.4byte	wszystko
 1054 01fe 11       		.uleb128 0x11
 1055 01ff DC010000 		.4byte	0x1dc
 1056 0203 0E       		.uleb128 0xe
 1057 0204 13020000 		.4byte	0x213
 1058 0208 25000000 		.4byte	0x25
 1059 020c 0F       		.uleb128 0xf
 1060 020d 5A000000 		.4byte	0x5a
 1061 0211 07       		.byte	0x7
 1062 0212 00       		.byte	0x0
 1063 0213 10       		.uleb128 0x10
 1064 0214 DE000000 		.4byte	.LASF21
ARM GAS  /cygdrive/c/DOCUME~1/mkwapisz/LOCALS~1/Temp/ccZQ3v2j.s 			page 24


 1065 0218 01       		.byte	0x1
 1066 0219 18       		.byte	0x18
 1067 021a 25020000 		.4byte	0x225
 1068 021e 01       		.byte	0x1
 1069 021f 05       		.byte	0x5
 1070 0220 03       		.byte	0x3
 1071 0221 00000000 		.4byte	empty
 1072 0225 11       		.uleb128 0x11
 1073 0226 03020000 		.4byte	0x203
 1074 022a 0E       		.uleb128 0xe
 1075 022b 3A020000 		.4byte	0x23a
 1076 022f 25000000 		.4byte	0x25
 1077 0233 0F       		.uleb128 0xf
 1078 0234 5A000000 		.4byte	0x5a
 1079 0238 07       		.byte	0x7
 1080 0239 00       		.byte	0x0
 1081 023a 10       		.uleb128 0x10
 1082 023b 00000000 		.4byte	.LASF22
 1083 023f 01       		.byte	0x1
 1084 0240 1B       		.byte	0x1b
 1085 0241 2A020000 		.4byte	0x22a
 1086 0245 01       		.byte	0x1
 1087 0246 05       		.byte	0x5
 1088 0247 03       		.byte	0x3
 1089 0248 00000000 		.4byte	pattern
 1090 024c 10       		.uleb128 0x10
 1091 024d 08000000 		.4byte	.LASF23
 1092 0251 01       		.byte	0x1
 1093 0252 1D       		.byte	0x1d
 1094 0253 53000000 		.4byte	0x53
 1095 0257 01       		.byte	0x1
 1096 0258 05       		.byte	0x5
 1097 0259 03       		.byte	0x3
 1098 025a 00000000 		.4byte	state
 1099 025e 12       		.uleb128 0x12
 1100 025f B9000000 		.4byte	.LASF24
 1101 0263 01       		.byte	0x1
 1102 0264 2F       		.byte	0x2f
 1103 0265 53000000 		.4byte	0x53
 1104 0269 01       		.byte	0x1
 1105 026a 01       		.byte	0x1
 1106 026b 12       		.uleb128 0x12
 1107 026c 0E000000 		.4byte	.LASF25
 1108 0270 01       		.byte	0x1
 1109 0271 30       		.byte	0x30
 1110 0272 53000000 		.4byte	0x53
 1111 0276 01       		.byte	0x1
 1112 0277 01       		.byte	0x1
 1113 0278 12       		.uleb128 0x12
 1114 0279 88000000 		.4byte	.LASF26
 1115 027d 01       		.byte	0x1
 1116 027e 31       		.byte	0x31
 1117 027f 53000000 		.4byte	0x53
 1118 0283 01       		.byte	0x1
 1119 0284 01       		.byte	0x1
 1120 0285 00       		.byte	0x0
 1121              		.section	.debug_abbrev
ARM GAS  /cygdrive/c/DOCUME~1/mkwapisz/LOCALS~1/Temp/ccZQ3v2j.s 			page 25


 1122 0000 01       		.uleb128 0x1
 1123 0001 11       		.uleb128 0x11
 1124 0002 01       		.byte	0x1
 1125 0003 10       		.uleb128 0x10
 1126 0004 06       		.uleb128 0x6
 1127 0005 12       		.uleb128 0x12
 1128 0006 01       		.uleb128 0x1
 1129 0007 11       		.uleb128 0x11
 1130 0008 01       		.uleb128 0x1
 1131 0009 25       		.uleb128 0x25
 1132 000a 0E       		.uleb128 0xe
 1133 000b 13       		.uleb128 0x13
 1134 000c 0B       		.uleb128 0xb
 1135 000d 03       		.uleb128 0x3
 1136 000e 0E       		.uleb128 0xe
 1137 000f 1B       		.uleb128 0x1b
 1138 0010 0E       		.uleb128 0xe
 1139 0011 00       		.byte	0x0
 1140 0012 00       		.byte	0x0
 1141 0013 02       		.uleb128 0x2
 1142 0014 16       		.uleb128 0x16
 1143 0015 00       		.byte	0x0
 1144 0016 03       		.uleb128 0x3
 1145 0017 08       		.uleb128 0x8
 1146 0018 3A       		.uleb128 0x3a
 1147 0019 0B       		.uleb128 0xb
 1148 001a 3B       		.uleb128 0x3b
 1149 001b 0B       		.uleb128 0xb
 1150 001c 49       		.uleb128 0x49
 1151 001d 13       		.uleb128 0x13
 1152 001e 00       		.byte	0x0
 1153 001f 00       		.byte	0x0
 1154 0020 03       		.uleb128 0x3
 1155 0021 24       		.uleb128 0x24
 1156 0022 00       		.byte	0x0
 1157 0023 03       		.uleb128 0x3
 1158 0024 0E       		.uleb128 0xe
 1159 0025 0B       		.uleb128 0xb
 1160 0026 0B       		.uleb128 0xb
 1161 0027 3E       		.uleb128 0x3e
 1162 0028 0B       		.uleb128 0xb
 1163 0029 00       		.byte	0x0
 1164 002a 00       		.byte	0x0
 1165 002b 04       		.uleb128 0x4
 1166 002c 24       		.uleb128 0x24
 1167 002d 00       		.byte	0x0
 1168 002e 03       		.uleb128 0x3
 1169 002f 08       		.uleb128 0x8
 1170 0030 0B       		.uleb128 0xb
 1171 0031 0B       		.uleb128 0xb
 1172 0032 3E       		.uleb128 0x3e
 1173 0033 0B       		.uleb128 0xb
 1174 0034 00       		.byte	0x0
 1175 0035 00       		.byte	0x0
 1176 0036 05       		.uleb128 0x5
 1177 0037 2E       		.uleb128 0x2e
 1178 0038 00       		.byte	0x0
ARM GAS  /cygdrive/c/DOCUME~1/mkwapisz/LOCALS~1/Temp/ccZQ3v2j.s 			page 26


 1179 0039 3F       		.uleb128 0x3f
 1180 003a 0C       		.uleb128 0xc
 1181 003b 03       		.uleb128 0x3
 1182 003c 0E       		.uleb128 0xe
 1183 003d 3A       		.uleb128 0x3a
 1184 003e 0B       		.uleb128 0xb
 1185 003f 3B       		.uleb128 0x3b
 1186 0040 0B       		.uleb128 0xb
 1187 0041 27       		.uleb128 0x27
 1188 0042 0C       		.uleb128 0xc
 1189 0043 20       		.uleb128 0x20
 1190 0044 0B       		.uleb128 0xb
 1191 0045 00       		.byte	0x0
 1192 0046 00       		.byte	0x0
 1193 0047 06       		.uleb128 0x6
 1194 0048 2E       		.uleb128 0x2e
 1195 0049 00       		.byte	0x0
 1196 004a 3F       		.uleb128 0x3f
 1197 004b 0C       		.uleb128 0xc
 1198 004c 03       		.uleb128 0x3
 1199 004d 0E       		.uleb128 0xe
 1200 004e 3A       		.uleb128 0x3a
 1201 004f 0B       		.uleb128 0xb
 1202 0050 3B       		.uleb128 0x3b
 1203 0051 0B       		.uleb128 0xb
 1204 0052 27       		.uleb128 0x27
 1205 0053 0C       		.uleb128 0xc
 1206 0054 11       		.uleb128 0x11
 1207 0055 01       		.uleb128 0x1
 1208 0056 12       		.uleb128 0x12
 1209 0057 01       		.uleb128 0x1
 1210 0058 40       		.uleb128 0x40
 1211 0059 0A       		.uleb128 0xa
 1212 005a 00       		.byte	0x0
 1213 005b 00       		.byte	0x0
 1214 005c 07       		.uleb128 0x7
 1215 005d 2E       		.uleb128 0x2e
 1216 005e 00       		.byte	0x0
 1217 005f 31       		.uleb128 0x31
 1218 0060 13       		.uleb128 0x13
 1219 0061 11       		.uleb128 0x11
 1220 0062 01       		.uleb128 0x1
 1221 0063 12       		.uleb128 0x12
 1222 0064 01       		.uleb128 0x1
 1223 0065 40       		.uleb128 0x40
 1224 0066 0A       		.uleb128 0xa
 1225 0067 00       		.byte	0x0
 1226 0068 00       		.byte	0x0
 1227 0069 08       		.uleb128 0x8
 1228 006a 2E       		.uleb128 0x2e
 1229 006b 01       		.byte	0x1
 1230 006c 01       		.uleb128 0x1
 1231 006d 13       		.uleb128 0x13
 1232 006e 3F       		.uleb128 0x3f
 1233 006f 0C       		.uleb128 0xc
 1234 0070 03       		.uleb128 0x3
 1235 0071 0E       		.uleb128 0xe
ARM GAS  /cygdrive/c/DOCUME~1/mkwapisz/LOCALS~1/Temp/ccZQ3v2j.s 			page 27


 1236 0072 3A       		.uleb128 0x3a
 1237 0073 0B       		.uleb128 0xb
 1238 0074 3B       		.uleb128 0x3b
 1239 0075 0B       		.uleb128 0xb
 1240 0076 27       		.uleb128 0x27
 1241 0077 0C       		.uleb128 0xc
 1242 0078 11       		.uleb128 0x11
 1243 0079 01       		.uleb128 0x1
 1244 007a 12       		.uleb128 0x12
 1245 007b 01       		.uleb128 0x1
 1246 007c 40       		.uleb128 0x40
 1247 007d 0A       		.uleb128 0xa
 1248 007e 00       		.byte	0x0
 1249 007f 00       		.byte	0x0
 1250 0080 09       		.uleb128 0x9
 1251 0081 1D       		.uleb128 0x1d
 1252 0082 00       		.byte	0x0
 1253 0083 31       		.uleb128 0x31
 1254 0084 13       		.uleb128 0x13
 1255 0085 11       		.uleb128 0x11
 1256 0086 01       		.uleb128 0x1
 1257 0087 12       		.uleb128 0x12
 1258 0088 01       		.uleb128 0x1
 1259 0089 58       		.uleb128 0x58
 1260 008a 0B       		.uleb128 0xb
 1261 008b 59       		.uleb128 0x59
 1262 008c 0B       		.uleb128 0xb
 1263 008d 00       		.byte	0x0
 1264 008e 00       		.byte	0x0
 1265 008f 0A       		.uleb128 0xa
 1266 0090 2E       		.uleb128 0x2e
 1267 0091 00       		.byte	0x0
 1268 0092 3F       		.uleb128 0x3f
 1269 0093 0C       		.uleb128 0xc
 1270 0094 03       		.uleb128 0x3
 1271 0095 0E       		.uleb128 0xe
 1272 0096 3A       		.uleb128 0x3a
 1273 0097 0B       		.uleb128 0xb
 1274 0098 3B       		.uleb128 0x3b
 1275 0099 0B       		.uleb128 0xb
 1276 009a 27       		.uleb128 0x27
 1277 009b 0C       		.uleb128 0xc
 1278 009c 11       		.uleb128 0x11
 1279 009d 01       		.uleb128 0x1
 1280 009e 12       		.uleb128 0x12
 1281 009f 01       		.uleb128 0x1
 1282 00a0 40       		.uleb128 0x40
 1283 00a1 06       		.uleb128 0x6
 1284 00a2 00       		.byte	0x0
 1285 00a3 00       		.byte	0x0
 1286 00a4 0B       		.uleb128 0xb
 1287 00a5 2E       		.uleb128 0x2e
 1288 00a6 01       		.byte	0x1
 1289 00a7 01       		.uleb128 0x1
 1290 00a8 13       		.uleb128 0x13
 1291 00a9 3F       		.uleb128 0x3f
 1292 00aa 0C       		.uleb128 0xc
ARM GAS  /cygdrive/c/DOCUME~1/mkwapisz/LOCALS~1/Temp/ccZQ3v2j.s 			page 28


 1293 00ab 03       		.uleb128 0x3
 1294 00ac 0E       		.uleb128 0xe
 1295 00ad 3A       		.uleb128 0x3a
 1296 00ae 0B       		.uleb128 0xb
 1297 00af 3B       		.uleb128 0x3b
 1298 00b0 0B       		.uleb128 0xb
 1299 00b1 27       		.uleb128 0x27
 1300 00b2 0C       		.uleb128 0xc
 1301 00b3 11       		.uleb128 0x11
 1302 00b4 01       		.uleb128 0x1
 1303 00b5 12       		.uleb128 0x12
 1304 00b6 01       		.uleb128 0x1
 1305 00b7 40       		.uleb128 0x40
 1306 00b8 06       		.uleb128 0x6
 1307 00b9 00       		.byte	0x0
 1308 00ba 00       		.byte	0x0
 1309 00bb 0C       		.uleb128 0xc
 1310 00bc 34       		.uleb128 0x34
 1311 00bd 00       		.byte	0x0
 1312 00be 03       		.uleb128 0x3
 1313 00bf 0E       		.uleb128 0xe
 1314 00c0 3A       		.uleb128 0x3a
 1315 00c1 0B       		.uleb128 0xb
 1316 00c2 3B       		.uleb128 0x3b
 1317 00c3 0B       		.uleb128 0xb
 1318 00c4 49       		.uleb128 0x49
 1319 00c5 13       		.uleb128 0x13
 1320 00c6 00       		.byte	0x0
 1321 00c7 00       		.byte	0x0
 1322 00c8 0D       		.uleb128 0xd
 1323 00c9 0B       		.uleb128 0xb
 1324 00ca 01       		.byte	0x1
 1325 00cb 11       		.uleb128 0x11
 1326 00cc 01       		.uleb128 0x1
 1327 00cd 12       		.uleb128 0x12
 1328 00ce 01       		.uleb128 0x1
 1329 00cf 00       		.byte	0x0
 1330 00d0 00       		.byte	0x0
 1331 00d1 0E       		.uleb128 0xe
 1332 00d2 01       		.uleb128 0x1
 1333 00d3 01       		.byte	0x1
 1334 00d4 01       		.uleb128 0x1
 1335 00d5 13       		.uleb128 0x13
 1336 00d6 49       		.uleb128 0x49
 1337 00d7 13       		.uleb128 0x13
 1338 00d8 00       		.byte	0x0
 1339 00d9 00       		.byte	0x0
 1340 00da 0F       		.uleb128 0xf
 1341 00db 21       		.uleb128 0x21
 1342 00dc 00       		.byte	0x0
 1343 00dd 49       		.uleb128 0x49
 1344 00de 13       		.uleb128 0x13
 1345 00df 2F       		.uleb128 0x2f
 1346 00e0 0B       		.uleb128 0xb
 1347 00e1 00       		.byte	0x0
 1348 00e2 00       		.byte	0x0
 1349 00e3 10       		.uleb128 0x10
ARM GAS  /cygdrive/c/DOCUME~1/mkwapisz/LOCALS~1/Temp/ccZQ3v2j.s 			page 29


 1350 00e4 34       		.uleb128 0x34
 1351 00e5 00       		.byte	0x0
 1352 00e6 03       		.uleb128 0x3
 1353 00e7 0E       		.uleb128 0xe
 1354 00e8 3A       		.uleb128 0x3a
 1355 00e9 0B       		.uleb128 0xb
 1356 00ea 3B       		.uleb128 0x3b
 1357 00eb 0B       		.uleb128 0xb
 1358 00ec 49       		.uleb128 0x49
 1359 00ed 13       		.uleb128 0x13
 1360 00ee 3F       		.uleb128 0x3f
 1361 00ef 0C       		.uleb128 0xc
 1362 00f0 02       		.uleb128 0x2
 1363 00f1 0A       		.uleb128 0xa
 1364 00f2 00       		.byte	0x0
 1365 00f3 00       		.byte	0x0
 1366 00f4 11       		.uleb128 0x11
 1367 00f5 26       		.uleb128 0x26
 1368 00f6 00       		.byte	0x0
 1369 00f7 49       		.uleb128 0x49
 1370 00f8 13       		.uleb128 0x13
 1371 00f9 00       		.byte	0x0
 1372 00fa 00       		.byte	0x0
 1373 00fb 12       		.uleb128 0x12
 1374 00fc 34       		.uleb128 0x34
 1375 00fd 00       		.byte	0x0
 1376 00fe 03       		.uleb128 0x3
 1377 00ff 0E       		.uleb128 0xe
 1378 0100 3A       		.uleb128 0x3a
 1379 0101 0B       		.uleb128 0xb
 1380 0102 3B       		.uleb128 0x3b
 1381 0103 0B       		.uleb128 0xb
 1382 0104 49       		.uleb128 0x49
 1383 0105 13       		.uleb128 0x13
 1384 0106 3F       		.uleb128 0x3f
 1385 0107 0C       		.uleb128 0xc
 1386 0108 3C       		.uleb128 0x3c
 1387 0109 0C       		.uleb128 0xc
 1388 010a 00       		.byte	0x0
 1389 010b 00       		.byte	0x0
 1390 010c 00       		.byte	0x0
 1391              		.section	.debug_pubnames,"",%progbits
 1392 0000 C1000000 		.4byte	0xc1
 1393 0004 0200     		.2byte	0x2
 1394 0006 00000000 		.4byte	.Ldebug_info0
 1395 000a 86020000 		.4byte	0x286
 1396 000e 7F000000 		.4byte	0x7f
 1397 0012 696E6974 		.ascii	"initTimer1\000"
 1397      54696D65 
 1397      723100
 1398 001d 92000000 		.4byte	0x92
 1399 0021 73657475 		.ascii	"setupPLL\000"
 1399      70504C4C 
 1399      00
 1400 002a A1000000 		.4byte	0xa1
 1401 002e 66656564 		.ascii	"feedSeq\000"
 1401      53657100 
ARM GAS  /cygdrive/c/DOCUME~1/mkwapisz/LOCALS~1/Temp/ccZQ3v2j.s 			page 30


 1402 0036 B0000000 		.4byte	0xb0
 1403 003a 636F6E6E 		.ascii	"connectPLL\000"
 1403      65637450 
 1403      4C4C00
 1404 0045 BF000000 		.4byte	0xbf
 1405 0049 696E6974 		.ascii	"initClocks\000"
 1405      436C6F63 
 1405      6B7300
 1406 0054 13010000 		.4byte	0x113
 1407 0058 74696D65 		.ascii	"timer\000"
 1407      7200
 1408 005e 28010000 		.4byte	0x128
 1409 0062 74696D65 		.ascii	"timerAndLedMatrix\000"
 1409      72416E64 
 1409      4C65644D 
 1409      61747269 
 1409      7800
 1410 0074 62010000 		.4byte	0x162
 1411 0078 54314953 		.ascii	"T1ISR\000"
 1411      5200
 1412 007e 9E010000 		.4byte	0x19e
 1413 0082 6B6F6C6B 		.ascii	"kolko\000"
 1413      6F00
 1414 0088 C5010000 		.4byte	0x1c5
 1415 008c 6B727A79 		.ascii	"krzyzyk\000"
 1415      7A796B00 
 1416 0094 EC010000 		.4byte	0x1ec
 1417 0098 77737A79 		.ascii	"wszystko\000"
 1417      73746B6F 
 1417      00
 1418 00a1 13020000 		.4byte	0x213
 1419 00a5 656D7074 		.ascii	"empty\000"
 1419      7900
 1420 00ab 3A020000 		.4byte	0x23a
 1421 00af 70617474 		.ascii	"pattern\000"
 1421      65726E00 
 1422 00b7 4C020000 		.4byte	0x24c
 1423 00bb 73746174 		.ascii	"state\000"
 1423      6500
 1424 00c1 00000000 		.4byte	0x0
 1425              		.section	.debug_aranges,"",%progbits
 1426 0000 1C000000 		.4byte	0x1c
 1427 0004 0200     		.2byte	0x2
 1428 0006 00000000 		.4byte	.Ldebug_info0
 1429 000a 04       		.byte	0x4
 1430 000b 00       		.byte	0x0
 1431 000c 0000     		.2byte	0x0
 1432 000e 0000     		.2byte	0x0
 1433 0010 00000000 		.4byte	.Ltext0
 1434 0014 DC020000 		.4byte	.Letext0-.Ltext0
 1435 0018 00000000 		.4byte	0x0
 1436 001c 00000000 		.4byte	0x0
 1437              		.section	.debug_str,"MS",%progbits,1
 1438              	.LASF22:
 1439 0000 70617474 		.ascii	"pattern\000"
 1439      65726E00 
 1440              	.LASF23:
ARM GAS  /cygdrive/c/DOCUME~1/mkwapisz/LOCALS~1/Temp/ccZQ3v2j.s 			page 31


 1441 0008 73746174 		.ascii	"state\000"
 1441      6500
 1442              	.LASF25:
 1443 000e 6C696665 		.ascii	"lifes\000"
 1443      7300
 1444              	.LASF6:
 1445 0014 73657475 		.ascii	"setupPLL\000"
 1445      70504C4C 
 1445      00
 1446              	.LASF13:
 1447 001d 636E7441 		.ascii	"cntA\000"
 1447      00
 1448              	.LASF17:
 1449 0022 6C6F6E67 		.ascii	"long int\000"
 1449      20696E74 
 1449      00
 1450              	.LASF20:
 1451 002b 77737A79 		.ascii	"wszystko\000"
 1451      73746B6F 
 1451      00
 1452              	.LASF28:
 1453 0034 74696D65 		.ascii	"timerAndLedMatrix.c\000"
 1453      72416E64 
 1453      4C65644D 
 1453      61747269 
 1453      782E6300 
 1454              	.LASF0:
 1455 0048 756E7369 		.ascii	"unsigned char\000"
 1455      676E6564 
 1455      20636861 
 1455      7200
 1456              	.LASF10:
 1457 0056 74696D65 		.ascii	"timer\000"
 1457      7200
 1458              	.LASF5:
 1459 005c 6C6F6E67 		.ascii	"long unsigned int\000"
 1459      20756E73 
 1459      69676E65 
 1459      6420696E 
 1459      7400
 1460              	.LASF1:
 1461 006e 73686F72 		.ascii	"short unsigned int\000"
 1461      7420756E 
 1461      7369676E 
 1461      65642069 
 1461      6E7400
 1462              	.LASF16:
 1463 0081 72656756 		.ascii	"regVal\000"
 1463      616C00
 1464              	.LASF26:
 1465 0088 73686F77 		.ascii	"showResult\000"
 1465      52657375 
 1465      6C7400
 1466              	.LASF15:
 1467 0093 54314953 		.ascii	"T1ISR\000"
 1467      5200
 1468              	.LASF19:
ARM GAS  /cygdrive/c/DOCUME~1/mkwapisz/LOCALS~1/Temp/ccZQ3v2j.s 			page 32


 1469 0099 6B727A79 		.ascii	"krzyzyk\000"
 1469      7A796B00 
 1470              	.LASF9:
 1471 00a1 696E6974 		.ascii	"initTimer1\000"
 1471      54696D65 
 1471      723100
 1472              	.LASF2:
 1473 00ac 756E7369 		.ascii	"unsigned int\000"
 1473      676E6564 
 1473      20696E74 
 1473      00
 1474              	.LASF24:
 1475 00b9 74696D65 		.ascii	"timerCnt\000"
 1475      72436E74 
 1475      00
 1476              	.LASF11:
 1477 00c2 696E6974 		.ascii	"initClocks\000"
 1477      436C6F63 
 1477      6B7300
 1478              	.LASF27:
 1479 00cd 474E5520 		.ascii	"GNU C 4.1.1\000"
 1479      4320342E 
 1479      312E3100 
 1480              	.LASF14:
 1481 00d9 7A6E616B 		.ascii	"znak\000"
 1481      00
 1482              	.LASF21:
 1483 00de 656D7074 		.ascii	"empty\000"
 1483      7900
 1484              	.LASF8:
 1485 00e4 636F6E6E 		.ascii	"connectPLL\000"
 1485      65637450 
 1485      4C4C00
 1486              	.LASF4:
 1487 00ef 73686F72 		.ascii	"short int\000"
 1487      7420696E 
 1487      7400
 1488              	.LASF29:
 1489 00f9 2F637967 		.ascii	"/cygdrive/c/Embedded/eclipse/Demo/2138\000"
 1489      64726976 
 1489      652F632F 
 1489      456D6265 
 1489      64646564 
 1490              	.LASF12:
 1491 0120 74696D65 		.ascii	"timerAndLedMatrix\000"
 1491      72416E64 
 1491      4C65644D 
 1491      61747269 
 1491      7800
 1492              	.LASF18:
 1493 0132 6B6F6C6B 		.ascii	"kolko\000"
 1493      6F00
 1494              	.LASF3:
 1495 0138 7369676E 		.ascii	"signed char\000"
 1495      65642063 
 1495      68617200 
 1496              	.LASF7:
ARM GAS  /cygdrive/c/DOCUME~1/mkwapisz/LOCALS~1/Temp/ccZQ3v2j.s 			page 33


 1497 0144 66656564 		.ascii	"feedSeq\000"
 1497      53657100 
 1498              		.ident	"GCC: (GNU) 4.1.1"
ARM GAS  /cygdrive/c/DOCUME~1/mkwapisz/LOCALS~1/Temp/ccZQ3v2j.s 			page 34


DEFINED SYMBOLS
                            *ABS*:00000000 timerAndLedMatrix.c
/cygdrive/c/DOCUME~1/mkwapisz/LOCALS~1/Temp/ccZQ3v2j.s:1      .text:00000000 $t
/cygdrive/c/DOCUME~1/mkwapisz/LOCALS~1/Temp/ccZQ3v2j.s:16     .text:00000000 initTimer1
/cygdrive/c/DOCUME~1/mkwapisz/LOCALS~1/Temp/ccZQ3v2j.s:69     .text:00000040 $d
/cygdrive/c/DOCUME~1/mkwapisz/LOCALS~1/Temp/ccZQ3v2j.s:590    .text:000002bc T1ISR
/cygdrive/c/DOCUME~1/mkwapisz/LOCALS~1/Temp/ccZQ3v2j.s:84     .text:00000060 setupPLL
/cygdrive/c/DOCUME~1/mkwapisz/LOCALS~1/Temp/ccZQ3v2j.s:81     .text:00000060 $t
/cygdrive/c/DOCUME~1/mkwapisz/LOCALS~1/Temp/ccZQ3v2j.s:104    .text:00000070 $d
/cygdrive/c/DOCUME~1/mkwapisz/LOCALS~1/Temp/ccZQ3v2j.s:112    .text:00000074 feedSeq
/cygdrive/c/DOCUME~1/mkwapisz/LOCALS~1/Temp/ccZQ3v2j.s:109    .text:00000074 $t
/cygdrive/c/DOCUME~1/mkwapisz/LOCALS~1/Temp/ccZQ3v2j.s:131    .text:00000080 $d
/cygdrive/c/DOCUME~1/mkwapisz/LOCALS~1/Temp/ccZQ3v2j.s:139    .text:00000084 connectPLL
/cygdrive/c/DOCUME~1/mkwapisz/LOCALS~1/Temp/ccZQ3v2j.s:136    .text:00000084 $t
/cygdrive/c/DOCUME~1/mkwapisz/LOCALS~1/Temp/ccZQ3v2j.s:161    .text:00000098 $d
/cygdrive/c/DOCUME~1/mkwapisz/LOCALS~1/Temp/ccZQ3v2j.s:170    .text:000000a0 initClocks
/cygdrive/c/DOCUME~1/mkwapisz/LOCALS~1/Temp/ccZQ3v2j.s:167    .text:000000a0 $t
/cygdrive/c/DOCUME~1/mkwapisz/LOCALS~1/Temp/ccZQ3v2j.s:235    .text:000000dc $d
/cygdrive/c/DOCUME~1/mkwapisz/LOCALS~1/Temp/ccZQ3v2j.s:246    .text:000000ec timer
/cygdrive/c/DOCUME~1/mkwapisz/LOCALS~1/Temp/ccZQ3v2j.s:243    .text:000000ec $t
/cygdrive/c/DOCUME~1/mkwapisz/LOCALS~1/Temp/ccZQ3v2j.s:266    .text:00000100 $d
/cygdrive/c/DOCUME~1/mkwapisz/LOCALS~1/Temp/ccZQ3v2j.s:280    .text:00000104 timerAndLedMatrix
/cygdrive/c/DOCUME~1/mkwapisz/LOCALS~1/Temp/ccZQ3v2j.s:277    .text:00000104 $t
/cygdrive/c/DOCUME~1/mkwapisz/LOCALS~1/Temp/ccZQ3v2j.s:571    .text:00000290 $d
/cygdrive/c/DOCUME~1/mkwapisz/LOCALS~1/Temp/ccZQ3v2j.s:673    .bss:00000008 state
/cygdrive/c/DOCUME~1/mkwapisz/LOCALS~1/Temp/ccZQ3v2j.s:667    .bss:00000000 pattern
/cygdrive/c/DOCUME~1/mkwapisz/LOCALS~1/Temp/ccZQ3v2j.s:587    .text:000002bc $t
/cygdrive/c/DOCUME~1/mkwapisz/LOCALS~1/Temp/ccZQ3v2j.s:617    .text:000002d4 $d
/cygdrive/c/DOCUME~1/mkwapisz/LOCALS~1/Temp/ccZQ3v2j.s:625    .rodata:00000000 kolko
/cygdrive/c/DOCUME~1/mkwapisz/LOCALS~1/Temp/ccZQ3v2j.s:637    .rodata:00000008 krzyzyk
/cygdrive/c/DOCUME~1/mkwapisz/LOCALS~1/Temp/ccZQ3v2j.s:649    .rodata:00000010 wszystko
/cygdrive/c/DOCUME~1/mkwapisz/LOCALS~1/Temp/ccZQ3v2j.s:661    .rodata:00000018 empty
                             .bss:00000000 $d

UNDEFINED SYMBOLS
__modsi3
srand
rand
PWM
simplePrintf
osSleep
lifes
timerCnt
showResult
ledMatrix
